; Listing generated by Microsoft (R) Optimizing Compiler Version 19.29.30153.0 

include listing.inc

INCLUDELIB MSVCRTD
INCLUDELIB OLDNAMES

msvcjmc	SEGMENT
__97D3638F_vcruntime_new@h DB 01H
__741AE07E_corecrt_math@h DB 01H
__B49664B7_stdlib@h DB 01H
__244AF085_cstdlib DB 01H
__47F37C5A_xtr1common DB 01H
__1FEB9909_corecrt_memcpy_s@h DB 01H
__A751F051_corecrt_memory@h DB 01H
__9200769A_corecrt_wstring@h DB 01H
__32E5F013_string@h DB 01H
__81812A28_cstddef DB 01H
__589FA321_type_traits DB 01H
__A2143F22_corecrt_stdio_config@h DB 01H
__829E1958_corecrt_wstdio@h DB 01H
__6DFAE8B8_stdio@h DB 01H
__C6E16F6F_corecrt_wconio@h DB 01H
__6D390390_corecrt_wio@h DB 01H
__1157D6BA_corecrt_wtime@h DB 01H
__1DC1E279_stat@h DB 01H
__93DC0B45_wchar@h DB 01H
__7FE5F402_limits DB 01H
__DD5FCA34_compare DB 01H
__12269DE6_xutility DB 01H
__60BC708E_cmath DB 01H
__20BB4341_malloc@h DB 01H
__B0A13A33_vcruntime_exception@h DB 01H
__FF458F76_exception DB 01H
__C69F69CF_tuple DB 01H
__79D216CD_xmemory DB 01H
__374A57BA_xpolymorphic_allocator@h DB 01H
__0D019051_xstring DB 01H
__760BB52B_stdexcept DB 01H
__A4685E82_xcall_once@h DB 01H
__A0B61CF9_time@h DB 01H
__DDB379A0_xthreads@h DB 01H
__14D0A8C0_atomic DB 01H
__1B354CA2_system_error DB 01H
__65ADBEC9_vcruntime_typeinfo@h DB 01H
__62F96EFF_typeinfo DB 01H
__C34BF88C_memory DB 01H
__EF0EAF83_xfacet DB 01H
__B2D2BA86_ctype@h DB 01H
__7D708D37_xlocinfo DB 01H
__D23FE460_xlocale DB 01H
__4495FA24_xiosbase DB 01H
__4CB88277_xlocnum DB 01H
__845859A3_ios DB 01H
__B7B93DCB_1_smart_pointer@cpp DB 01H
__A2FF0B9E_istream DB 01H
__C12F3EA4_ostream DB 01H
__74AB0D97_streambuf DB 01H
__B30C2184_iosfwd DB 01H
__1347750E_utility DB 01H
__038A2AA6_iterator DB 01H
__E458E21C_xstddef DB 01H
__F54903A0_xatomic@h DB 01H
msvcjmc	ENDS
PUBLIC	?__empty_global_delete@@YAXPEAX@Z		; __empty_global_delete
PUBLIC	?__empty_global_delete@@YAXPEAX_K@Z		; __empty_global_delete
PUBLIC	?__empty_global_delete@@YAXPEAXW4align_val_t@std@@@Z ; __empty_global_delete
PUBLIC	?__empty_global_delete@@YAXPEAX_KW4align_val_t@std@@@Z ; __empty_global_delete
PUBLIC	?length@?$_Narrow_char_traits@DH@std@@SA_KQEBD@Z ; std::_Narrow_char_traits<char,int>::length
PUBLIC	?eq_int_type@?$_Narrow_char_traits@DH@std@@SA_NAEBH0@Z ; std::_Narrow_char_traits<char,int>::eq_int_type
PUBLIC	?eof@?$_Narrow_char_traits@DH@std@@SAHXZ	; std::_Narrow_char_traits<char,int>::eof
PUBLIC	??0classA@@QEAA@XZ				; classA::classA
PUBLIC	??1classA@@QEAA@XZ				; classA::~classA
PUBLIC	?func@classA@@QEAAXXZ				; classA::func
PUBLIC	??_GclassA@@QEAAPEAXI@Z				; classA::`scalar deleting destructor'
PUBLIC	??$?6U?$char_traits@D@std@@@std@@YAAEAV?$basic_ostream@DU?$char_traits@D@std@@@0@AEAV10@PEBD@Z ; std::operator<<<std::char_traits<char> >
PUBLIC	??$endl@DU?$char_traits@D@std@@@std@@YAAEAV?$basic_ostream@DU?$char_traits@D@std@@@0@AEAV10@@Z ; std::endl<char,std::char_traits<char> >
PUBLIC	main
PUBLIC	??0?$smart@VclassA@@@@QEAA@PEAVclassA@@@Z	; smart<classA>::smart<classA>
PUBLIC	??1?$smart@VclassA@@@@QEAA@XZ			; smart<classA>::~smart<classA>
PUBLIC	??0?$smart@VclassA@@@@QEAA@AEBV0@@Z		; smart<classA>::smart<classA>
PUBLIC	??4?$smart@VclassA@@@@QEAAAEAV0@AEBV0@@Z	; smart<classA>::operator=
PUBLIC	??C?$smart@VclassA@@@@QEAAPEAVclassA@@XZ	; smart<classA>::operator->
PUBLIC	??B?$smart@VclassA@@@@QEAA_NXZ			; smart<classA>::operator bool
PUBLIC	?__autoclassinit2@?$smart@VclassA@@@@QEAAX_K@Z	; smart<classA>::__autoclassinit2
PUBLIC	??$swap@PEAVclassA@@$0A@@std@@YAXAEAPEAVclassA@@0@Z ; std::swap<classA *,0>
PUBLIC	??$swap@PEAH$0A@@std@@YAXAEAPEAH0@Z		; std::swap<int *,0>
PUBLIC	??0_Sentry_base@?$basic_ostream@DU?$char_traits@D@std@@@std@@QEAA@AEAV12@@Z ; std::basic_ostream<char,std::char_traits<char> >::_Sentry_base::_Sentry_base
PUBLIC	??1_Sentry_base@?$basic_ostream@DU?$char_traits@D@std@@@std@@QEAA@XZ ; std::basic_ostream<char,std::char_traits<char> >::_Sentry_base::~_Sentry_base
PUBLIC	??0sentry@?$basic_ostream@DU?$char_traits@D@std@@@std@@QEAA@AEAV12@@Z ; std::basic_ostream<char,std::char_traits<char> >::sentry::sentry
PUBLIC	??1sentry@?$basic_ostream@DU?$char_traits@D@std@@@std@@QEAA@XZ ; std::basic_ostream<char,std::char_traits<char> >::sentry::~sentry
PUBLIC	??Bsentry@?$basic_ostream@DU?$char_traits@D@std@@@std@@QEBA_NXZ ; std::basic_ostream<char,std::char_traits<char> >::sentry::operator bool
PUBLIC	??$move@AEAPEAVclassA@@@std@@YA$$QEAPEAVclassA@@AEAPEAV1@@Z ; std::move<classA * &>
PUBLIC	??$move@AEAPEAH@std@@YA$$QEAPEAHAEAPEAH@Z	; std::move<int * &>
PUBLIC	__JustMyCode_Default
PUBLIC	??_C@_0BE@LCCMKAJN@classA?5C?8tor?5called@	; `string'
PUBLIC	??_C@_0BE@MPFPKGMF@classA?5D?8tor?5called@	; `string'
PUBLIC	??_C@_0P@CKFMDMBD@classA?3?3func?$CI?$CJ@	; `string'
PUBLIC	??_C@_0DA@KNLOMJHG@?9?9?9?9?9?9?9?9?9?9?9?9?9?9?9?9?9?9?9?9?9?9?9?9?9?9?9?9?9?9?9@ ; `string'
EXTRN	??2@YAPEAX_K@Z:PROC				; operator new
EXTRN	??3@YAXPEAX_K@Z:PROC				; operator delete
EXTRN	?uncaught_exceptions@std@@YAHXZ:PROC		; std::uncaught_exceptions
EXTRN	__imp_?good@ios_base@std@@QEBA_NXZ:PROC
EXTRN	__imp_?flags@ios_base@std@@QEBAHXZ:PROC
EXTRN	__imp_?width@ios_base@std@@QEBA_JXZ:PROC
EXTRN	__imp_?width@ios_base@std@@QEAA_J_J@Z:PROC
EXTRN	__imp_?sputc@?$basic_streambuf@DU?$char_traits@D@std@@@std@@QEAAHD@Z:PROC
EXTRN	__imp_?sputn@?$basic_streambuf@DU?$char_traits@D@std@@@std@@QEAA_JPEBD_J@Z:PROC
EXTRN	__imp_?setstate@?$basic_ios@DU?$char_traits@D@std@@@std@@QEAAXH_N@Z:PROC
EXTRN	__imp_?tie@?$basic_ios@DU?$char_traits@D@std@@@std@@QEBAPEAV?$basic_ostream@DU?$char_traits@D@std@@@2@XZ:PROC
EXTRN	__imp_?rdbuf@?$basic_ios@DU?$char_traits@D@std@@@std@@QEBAPEAV?$basic_streambuf@DU?$char_traits@D@std@@@2@XZ:PROC
EXTRN	__imp_?fill@?$basic_ios@DU?$char_traits@D@std@@@std@@QEBADXZ:PROC
EXTRN	__imp_?widen@?$basic_ios@DU?$char_traits@D@std@@@std@@QEBADD@Z:PROC
EXTRN	__imp_?_Osfx@?$basic_ostream@DU?$char_traits@D@std@@@std@@QEAAXXZ:PROC
EXTRN	__imp_??6?$basic_ostream@DU?$char_traits@D@std@@@std@@QEAAAEAV01@P6AAEAV01@AEAV01@@Z@Z:PROC
EXTRN	__imp_?put@?$basic_ostream@DU?$char_traits@D@std@@@std@@QEAAAEAV12@D@Z:PROC
EXTRN	__imp_?flush@?$basic_ostream@DU?$char_traits@D@std@@@std@@QEAAAEAV12@XZ:PROC
EXTRN	_RTC_CheckStackVars:PROC
EXTRN	_RTC_InitBase:PROC
EXTRN	_RTC_Shutdown:PROC
EXTRN	__CheckForDebuggerJustMyCode:PROC
EXTRN	__CxxFrameHandler4:PROC
EXTRN	__GSHandlerCheck:PROC
EXTRN	__GSHandlerCheck_EH4:PROC
EXTRN	__security_check_cookie:PROC
EXTRN	__imp_?cout@std@@3V?$basic_ostream@DU?$char_traits@D@std@@@1@A:BYTE
EXTRN	__security_cookie:QWORD
;	COMDAT pdata
pdata	SEGMENT
$pdata$?__empty_global_delete@@YAXPEAX@Z DD imagerel $LN3
	DD	imagerel $LN3+41
	DD	imagerel $unwind$?__empty_global_delete@@YAXPEAX@Z
pdata	ENDS
;	COMDAT pdata
pdata	SEGMENT
$pdata$?__empty_global_delete@@YAXPEAX_K@Z DD imagerel $LN3
	DD	imagerel $LN3+46
	DD	imagerel $unwind$?__empty_global_delete@@YAXPEAX_K@Z
pdata	ENDS
;	COMDAT pdata
pdata	SEGMENT
$pdata$?__empty_global_delete@@YAXPEAXW4align_val_t@std@@@Z DD imagerel $LN3
	DD	imagerel $LN3+46
	DD	imagerel $unwind$?__empty_global_delete@@YAXPEAXW4align_val_t@std@@@Z
pdata	ENDS
;	COMDAT pdata
pdata	SEGMENT
$pdata$?__empty_global_delete@@YAXPEAX_KW4align_val_t@std@@@Z DD imagerel $LN3
	DD	imagerel $LN3+51
	DD	imagerel $unwind$?__empty_global_delete@@YAXPEAX_KW4align_val_t@std@@@Z
pdata	ENDS
;	COMDAT pdata
pdata	SEGMENT
$pdata$?length@?$_Narrow_char_traits@DH@std@@SA_KQEBD@Z DD imagerel $LN4
	DD	imagerel $LN4+100
	DD	imagerel $unwind$?length@?$_Narrow_char_traits@DH@std@@SA_KQEBD@Z
pdata	ENDS
;	COMDAT pdata
pdata	SEGMENT
$pdata$?eq_int_type@?$_Narrow_char_traits@DH@std@@SA_NAEBH0@Z DD imagerel $LN5
	DD	imagerel $LN5+95
	DD	imagerel $unwind$?eq_int_type@?$_Narrow_char_traits@DH@std@@SA_NAEBH0@Z
pdata	ENDS
;	COMDAT pdata
pdata	SEGMENT
$pdata$?eof@?$_Narrow_char_traits@DH@std@@SAHXZ DD imagerel $LN3
	DD	imagerel $LN3+42
	DD	imagerel $unwind$?eof@?$_Narrow_char_traits@DH@std@@SAHXZ
pdata	ENDS
;	COMDAT pdata
pdata	SEGMENT
$pdata$??0classA@@QEAA@XZ DD imagerel $LN3
	DD	imagerel $LN3+94
	DD	imagerel $unwind$??0classA@@QEAA@XZ
pdata	ENDS
;	COMDAT pdata
pdata	SEGMENT
$pdata$??1classA@@QEAA@XZ DD imagerel $LN3
	DD	imagerel $LN3+88
	DD	imagerel $unwind$??1classA@@QEAA@XZ
pdata	ENDS
;	COMDAT pdata
pdata	SEGMENT
$pdata$?func@classA@@QEAAXXZ DD imagerel $LN3
	DD	imagerel $LN3+87
	DD	imagerel $unwind$?func@classA@@QEAAXXZ
pdata	ENDS
;	COMDAT pdata
pdata	SEGMENT
$pdata$??_GclassA@@QEAAPEAXI@Z DD imagerel $LN4
	DD	imagerel $LN4+82
	DD	imagerel $unwind$??_GclassA@@QEAAPEAXI@Z
pdata	ENDS
;	COMDAT pdata
pdata	SEGMENT
$pdata$??$?6U?$char_traits@D@std@@@std@@YAAEAV?$basic_ostream@DU?$char_traits@D@std@@@0@AEAV10@PEBD@Z DD imagerel $LN25
	DD	imagerel $LN25+1126
	DD	imagerel $unwind$??$?6U?$char_traits@D@std@@@std@@YAAEAV?$basic_ostream@DU?$char_traits@D@std@@@0@AEAV10@PEBD@Z
pdata	ENDS
;	COMDAT pdata
pdata	SEGMENT
$pdata$?dtor$0@?0???$?6U?$char_traits@D@std@@@std@@YAAEAV?$basic_ostream@DU?$char_traits@D@std@@@0@AEAV10@PEBD@Z@4HA DD imagerel ?dtor$0@?0???$?6U?$char_traits@D@std@@@std@@YAAEAV?$basic_ostream@DU?$char_traits@D@std@@@0@AEAV10@PEBD@Z@4HA
	DD	imagerel ?dtor$0@?0???$?6U?$char_traits@D@std@@@std@@YAAEAV?$basic_ostream@DU?$char_traits@D@std@@@0@AEAV10@PEBD@Z@4HA+36
	DD	imagerel $unwind$?dtor$0@?0???$?6U?$char_traits@D@std@@@std@@YAAEAV?$basic_ostream@DU?$char_traits@D@std@@@0@AEAV10@PEBD@Z@4HA
pdata	ENDS
;	COMDAT pdata
pdata	SEGMENT
$pdata$?catch$1@?0???$?6U?$char_traits@D@std@@@std@@YAAEAV?$basic_ostream@DU?$char_traits@D@std@@@0@AEAV10@PEBD@Z@4HA DD imagerel ?catch$1@?0???$?6U?$char_traits@D@std@@@std@@YAAEAV?$basic_ostream@DU?$char_traits@D@std@@@0@AEAV10@PEBD@Z@4HA
	DD	imagerel ?catch$1@?0???$?6U?$char_traits@D@std@@@std@@YAAEAV?$basic_ostream@DU?$char_traits@D@std@@@0@AEAV10@PEBD@Z@4HA+91
	DD	imagerel $unwind$?catch$1@?0???$?6U?$char_traits@D@std@@@std@@YAAEAV?$basic_ostream@DU?$char_traits@D@std@@@0@AEAV10@PEBD@Z@4HA
pdata	ENDS
;	COMDAT pdata
pdata	SEGMENT
$pdata$??$endl@DU?$char_traits@D@std@@@std@@YAAEAV?$basic_ostream@DU?$char_traits@D@std@@@0@AEAV10@@Z DD imagerel $LN3
	DD	imagerel $LN3+126
	DD	imagerel $unwind$??$endl@DU?$char_traits@D@std@@@std@@YAAEAV?$basic_ostream@DU?$char_traits@D@std@@@0@AEAV10@@Z
pdata	ENDS
;	COMDAT pdata
pdata	SEGMENT
$pdata$main DD	imagerel $LN16
	DD	imagerel $LN16+723
	DD	imagerel $unwind$main
pdata	ENDS
;	COMDAT pdata
pdata	SEGMENT
$pdata$main$dtor$0 DD imagerel main$dtor$0
	DD	imagerel main$dtor$0+44
	DD	imagerel $unwind$main$dtor$0
pdata	ENDS
;	COMDAT pdata
pdata	SEGMENT
$pdata$main$dtor$1 DD imagerel main$dtor$1
	DD	imagerel main$dtor$1+44
	DD	imagerel $unwind$main$dtor$1
pdata	ENDS
;	COMDAT pdata
pdata	SEGMENT
$pdata$main$dtor$2 DD imagerel main$dtor$2
	DD	imagerel main$dtor$2+36
	DD	imagerel $unwind$main$dtor$2
pdata	ENDS
;	COMDAT pdata
pdata	SEGMENT
$pdata$main$dtor$3 DD imagerel main$dtor$3
	DD	imagerel main$dtor$3+36
	DD	imagerel $unwind$main$dtor$3
pdata	ENDS
;	COMDAT pdata
pdata	SEGMENT
$pdata$main$dtor$4 DD imagerel main$dtor$4
	DD	imagerel main$dtor$4+39
	DD	imagerel $unwind$main$dtor$4
pdata	ENDS
;	COMDAT pdata
pdata	SEGMENT
$pdata$??0?$smart@VclassA@@@@QEAA@PEAVclassA@@@Z DD imagerel $LN6
	DD	imagerel $LN6+183
	DD	imagerel $unwind$??0?$smart@VclassA@@@@QEAA@PEAVclassA@@@Z
pdata	ENDS
;	COMDAT pdata
pdata	SEGMENT
$pdata$??1?$smart@VclassA@@@@QEAA@XZ DD imagerel $LN8
	DD	imagerel $LN8+229
	DD	imagerel $unwind$??1?$smart@VclassA@@@@QEAA@XZ
pdata	ENDS
;	COMDAT pdata
pdata	SEGMENT
$pdata$??0?$smart@VclassA@@@@QEAA@AEBV0@@Z DD imagerel $LN3
	DD	imagerel $LN3+123
	DD	imagerel $unwind$??0?$smart@VclassA@@@@QEAA@AEBV0@@Z
pdata	ENDS
;	COMDAT pdata
pdata	SEGMENT
$pdata$??4?$smart@VclassA@@@@QEAAAEAV0@AEBV0@@Z DD imagerel $LN4
	DD	imagerel $LN4+227
	DD	imagerel $unwind$??4?$smart@VclassA@@@@QEAAAEAV0@AEBV0@@Z
pdata	ENDS
;	COMDAT pdata
pdata	SEGMENT
$pdata$??C?$smart@VclassA@@@@QEAAPEAVclassA@@XZ DD imagerel $LN3
	DD	imagerel $LN3+51
	DD	imagerel $unwind$??C?$smart@VclassA@@@@QEAAPEAVclassA@@XZ
pdata	ENDS
;	COMDAT pdata
pdata	SEGMENT
$pdata$??B?$smart@VclassA@@@@QEAA_NXZ DD imagerel $LN5
	DD	imagerel $LN5+83
	DD	imagerel $unwind$??B?$smart@VclassA@@@@QEAA_NXZ
pdata	ENDS
;	COMDAT pdata
pdata	SEGMENT
$pdata$?__autoclassinit2@?$smart@VclassA@@@@QEAAX_K@Z DD imagerel $LN3
	DD	imagerel $LN3+50
	DD	imagerel $unwind$?__autoclassinit2@?$smart@VclassA@@@@QEAAX_K@Z
pdata	ENDS
;	COMDAT pdata
pdata	SEGMENT
$pdata$??$swap@PEAVclassA@@$0A@@std@@YAXAEAPEAVclassA@@0@Z DD imagerel $LN3
	DD	imagerel $LN3+185
	DD	imagerel $unwind$??$swap@PEAVclassA@@$0A@@std@@YAXAEAPEAVclassA@@0@Z
pdata	ENDS
;	COMDAT pdata
pdata	SEGMENT
$pdata$??$swap@PEAH$0A@@std@@YAXAEAPEAH0@Z DD imagerel $LN3
	DD	imagerel $LN3+185
	DD	imagerel $unwind$??$swap@PEAH$0A@@std@@YAXAEAPEAH0@Z
pdata	ENDS
;	COMDAT pdata
pdata	SEGMENT
$pdata$??0_Sentry_base@?$basic_ostream@DU?$char_traits@D@std@@@std@@QEAA@AEAV12@@Z DD imagerel $LN4
	DD	imagerel $LN4+148
	DD	imagerel $unwind$??0_Sentry_base@?$basic_ostream@DU?$char_traits@D@std@@@std@@QEAA@AEAV12@@Z
pdata	ENDS
;	COMDAT pdata
pdata	SEGMENT
$pdata$??1_Sentry_base@?$basic_ostream@DU?$char_traits@D@std@@@std@@QEAA@XZ DD imagerel $LN4
	DD	imagerel $LN4+120
	DD	imagerel $unwind$??1_Sentry_base@?$basic_ostream@DU?$char_traits@D@std@@@std@@QEAA@XZ
pdata	ENDS
;	COMDAT pdata
pdata	SEGMENT
$pdata$??0sentry@?$basic_ostream@DU?$char_traits@D@std@@@std@@QEAA@AEAV12@@Z DD imagerel $LN7
	DD	imagerel $LN7+261
	DD	imagerel $unwind$??0sentry@?$basic_ostream@DU?$char_traits@D@std@@@std@@QEAA@AEAV12@@Z
pdata	ENDS
;	COMDAT pdata
pdata	SEGMENT
$pdata$?dtor$0@?0???0sentry@?$basic_ostream@DU?$char_traits@D@std@@@std@@QEAA@AEAV12@@Z@4HA DD imagerel ?dtor$0@?0???0sentry@?$basic_ostream@DU?$char_traits@D@std@@@std@@QEAA@AEAV12@@Z@4HA
	DD	imagerel ?dtor$0@?0???0sentry@?$basic_ostream@DU?$char_traits@D@std@@@std@@QEAA@AEAV12@@Z@4HA+39
	DD	imagerel $unwind$?dtor$0@?0???0sentry@?$basic_ostream@DU?$char_traits@D@std@@@std@@QEAA@AEAV12@@Z@4HA
pdata	ENDS
;	COMDAT pdata
pdata	SEGMENT
$pdata$??1sentry@?$basic_ostream@DU?$char_traits@D@std@@@std@@QEAA@XZ DD imagerel $LN6
	DD	imagerel $LN6+113
	DD	imagerel $unwind$??1sentry@?$basic_ostream@DU?$char_traits@D@std@@@std@@QEAA@XZ
pdata	ENDS
;	COMDAT pdata
pdata	SEGMENT
$pdata$??Bsentry@?$basic_ostream@DU?$char_traits@D@std@@@std@@QEBA_NXZ DD imagerel $LN3
	DD	imagerel $LN3+52
	DD	imagerel $unwind$??Bsentry@?$basic_ostream@DU?$char_traits@D@std@@@std@@QEBA_NXZ
pdata	ENDS
;	COMDAT pdata
pdata	SEGMENT
$pdata$??$move@AEAPEAVclassA@@@std@@YA$$QEAPEAVclassA@@AEAPEAV1@@Z DD imagerel $LN3
	DD	imagerel $LN3+48
	DD	imagerel $unwind$??$move@AEAPEAVclassA@@@std@@YA$$QEAPEAVclassA@@AEAPEAV1@@Z
pdata	ENDS
;	COMDAT pdata
pdata	SEGMENT
$pdata$??$move@AEAPEAH@std@@YA$$QEAPEAHAEAPEAH@Z DD imagerel $LN3
	DD	imagerel $LN3+48
	DD	imagerel $unwind$??$move@AEAPEAH@std@@YA$$QEAPEAHAEAPEAH@Z
pdata	ENDS
;	COMDAT rtc$TMZ
rtc$TMZ	SEGMENT
_RTC_Shutdown.rtc$TMZ DQ FLAT:_RTC_Shutdown
rtc$TMZ	ENDS
;	COMDAT rtc$IMZ
rtc$IMZ	SEGMENT
_RTC_InitBase.rtc$IMZ DQ FLAT:_RTC_InitBase
rtc$IMZ	ENDS
;	COMDAT ??_C@_0DA@KNLOMJHG@?9?9?9?9?9?9?9?9?9?9?9?9?9?9?9?9?9?9?9?9?9?9?9?9?9?9?9?9?9?9?9@
CONST	SEGMENT
??_C@_0DA@KNLOMJHG@?9?9?9?9?9?9?9?9?9?9?9?9?9?9?9?9?9?9?9?9?9?9?9?9?9?9?9?9?9?9?9@ DB '-'
	DB	'----------------------------------------------', 00H ; `string'
CONST	ENDS
;	COMDAT ??_C@_0P@CKFMDMBD@classA?3?3func?$CI?$CJ@
CONST	SEGMENT
??_C@_0P@CKFMDMBD@classA?3?3func?$CI?$CJ@ DB 'classA::func()', 00H ; `string'
CONST	ENDS
;	COMDAT ??_C@_0BE@MPFPKGMF@classA?5D?8tor?5called@
CONST	SEGMENT
??_C@_0BE@MPFPKGMF@classA?5D?8tor?5called@ DB 'classA D''tor called', 00H ; `string'
CONST	ENDS
;	COMDAT ??_C@_0BE@LCCMKAJN@classA?5C?8tor?5called@
CONST	SEGMENT
??_C@_0BE@LCCMKAJN@classA?5C?8tor?5called@ DB 'classA C''tor called', 00H ; `string'
CONST	ENDS
;	COMDAT xdata
xdata	SEGMENT
$unwind$??$move@AEAPEAH@std@@YA$$QEAPEAHAEAPEAH@Z DD 025051301H
	DD	010e2313H
	DD	07007001dH
	DD	05006H
xdata	ENDS
;	COMDAT xdata
xdata	SEGMENT
$unwind$??$move@AEAPEAVclassA@@@std@@YA$$QEAPEAVclassA@@AEAPEAV1@@Z DD 025051301H
	DD	010e2313H
	DD	07007001dH
	DD	05006H
xdata	ENDS
;	COMDAT xdata
xdata	SEGMENT
$unwind$??Bsentry@?$basic_ostream@DU?$char_traits@D@std@@@std@@QEBA_NXZ DD 025051301H
	DD	010e2313H
	DD	07007001dH
	DD	05006H
xdata	ENDS
;	COMDAT xdata
xdata	SEGMENT
$ip2state$??1sentry@?$basic_ostream@DU?$char_traits@D@std@@@std@@QEAA@XZ DB 02H
	DB	00H
	DB	00H
xdata	ENDS
;	COMDAT xdata
xdata	SEGMENT
$cppxdata$??1sentry@?$basic_ostream@DU?$char_traits@D@std@@@std@@QEAA@XZ DB 060H
	DD	imagerel $ip2state$??1sentry@?$basic_ostream@DU?$char_traits@D@std@@@std@@QEAA@XZ
xdata	ENDS
;	COMDAT xdata
xdata	SEGMENT
$unwind$??1sentry@?$basic_ostream@DU?$char_traits@D@std@@@std@@QEAA@XZ DD 025051319H
	DD	010e2313H
	DD	070070021H
	DD	05006H
	DD	imagerel __CxxFrameHandler4
	DD	imagerel $cppxdata$??1sentry@?$basic_ostream@DU?$char_traits@D@std@@@std@@QEAA@XZ
xdata	ENDS
;	COMDAT voltbl
voltbl	SEGMENT
_volmd	DB	00H
	DB	05H
voltbl	ENDS
;	COMDAT xdata
xdata	SEGMENT
$unwind$?dtor$0@?0???0sentry@?$basic_ostream@DU?$char_traits@D@std@@@std@@QEAA@AEAV12@@Z@4HA DD 031001H
	DD	0700c4210H
	DD	0500bH
xdata	ENDS
;	COMDAT xdata
xdata	SEGMENT
$ip2state$??0sentry@?$basic_ostream@DU?$char_traits@D@std@@@std@@QEAA@AEAV12@@Z DB 06H
	DB	00H
	DB	00H
	DB	'p'
	DB	02H
	DB	0f1H, 02H
	DB	00H
xdata	ENDS
;	COMDAT xdata
xdata	SEGMENT
$stateUnwindMap$??0sentry@?$basic_ostream@DU?$char_traits@D@std@@@std@@QEAA@AEAV12@@Z DB 02H
	DB	0eH
	DD	imagerel ?dtor$0@?0???0sentry@?$basic_ostream@DU?$char_traits@D@std@@@std@@QEAA@AEAV12@@Z@4HA
xdata	ENDS
;	COMDAT xdata
xdata	SEGMENT
$cppxdata$??0sentry@?$basic_ostream@DU?$char_traits@D@std@@@std@@QEAA@AEAV12@@Z DB 028H
	DD	imagerel $stateUnwindMap$??0sentry@?$basic_ostream@DU?$char_traits@D@std@@@std@@QEAA@AEAV12@@Z
	DD	imagerel $ip2state$??0sentry@?$basic_ostream@DU?$char_traits@D@std@@@std@@QEAA@AEAV12@@Z
xdata	ENDS
;	COMDAT xdata
xdata	SEGMENT
$unwind$??0sentry@?$basic_ostream@DU?$char_traits@D@std@@@std@@QEAA@AEAV12@@Z DD 025051811H
	DD	01132318H
	DD	0700c0021H
	DD	0500bH
	DD	imagerel __CxxFrameHandler4
	DD	imagerel $cppxdata$??0sentry@?$basic_ostream@DU?$char_traits@D@std@@@std@@QEAA@AEAV12@@Z
xdata	ENDS
;	COMDAT xdata
xdata	SEGMENT
$ip2state$??1_Sentry_base@?$basic_ostream@DU?$char_traits@D@std@@@std@@QEAA@XZ DB 02H
	DB	00H
	DB	00H
xdata	ENDS
;	COMDAT xdata
xdata	SEGMENT
$cppxdata$??1_Sentry_base@?$basic_ostream@DU?$char_traits@D@std@@@std@@QEAA@XZ DB 060H
	DD	imagerel $ip2state$??1_Sentry_base@?$basic_ostream@DU?$char_traits@D@std@@@std@@QEAA@XZ
xdata	ENDS
;	COMDAT xdata
xdata	SEGMENT
$unwind$??1_Sentry_base@?$basic_ostream@DU?$char_traits@D@std@@@std@@QEAA@XZ DD 025051319H
	DD	010e2313H
	DD	070070021H
	DD	05006H
	DD	imagerel __CxxFrameHandler4
	DD	imagerel $cppxdata$??1_Sentry_base@?$basic_ostream@DU?$char_traits@D@std@@@std@@QEAA@XZ
xdata	ENDS
;	COMDAT xdata
xdata	SEGMENT
$unwind$??0_Sentry_base@?$basic_ostream@DU?$char_traits@D@std@@@std@@QEAA@AEAV12@@Z DD 025051801H
	DD	01132318H
	DD	0700c0021H
	DD	0500bH
xdata	ENDS
;	COMDAT voltbl
voltbl	SEGMENT
_volmd	DB	03bH
	DB	0a0H
voltbl	ENDS
;	COMDAT xdata
xdata	SEGMENT
$unwind$??$swap@PEAH$0A@@std@@YAXAEAPEAH0@Z DD 025054219H
	DD	01132318H
	DD	0700c0021H
	DD	0500bH
	DD	imagerel __GSHandlerCheck
	DD	0f8H
xdata	ENDS
;	COMDAT CONST
CONST	SEGMENT
??$swap@PEAH$0A@@std@@YAXAEAPEAH0@Z$rtcName$0 DB 05fH	; std::swap<int *,0>
	DB	054H
	DB	06dH
	DB	070H
	DB	00H
	ORG $+11
??$swap@PEAH$0A@@std@@YAXAEAPEAH0@Z$rtcVarDesc DD 028H	; std::swap<int *,0>
	DD	08H
	DQ	FLAT:??$swap@PEAH$0A@@std@@YAXAEAPEAH0@Z$rtcName$0
	ORG $+48
??$swap@PEAH$0A@@std@@YAXAEAPEAH0@Z$rtcFrameData DD 01H	; std::swap<int *,0>
	DD	00H
	DQ	FLAT:??$swap@PEAH$0A@@std@@YAXAEAPEAH0@Z$rtcVarDesc
CONST	ENDS
;	COMDAT voltbl
voltbl	SEGMENT
_volmd	DB	03bH
	DB	0a0H
voltbl	ENDS
;	COMDAT xdata
xdata	SEGMENT
$unwind$??$swap@PEAVclassA@@$0A@@std@@YAXAEAPEAVclassA@@0@Z DD 025054219H
	DD	01132318H
	DD	0700c0021H
	DD	0500bH
	DD	imagerel __GSHandlerCheck
	DD	0f8H
xdata	ENDS
;	COMDAT CONST
CONST	SEGMENT
??$swap@PEAVclassA@@$0A@@std@@YAXAEAPEAVclassA@@0@Z$rtcName$0 DB 05fH ; std::swap<classA *,0>
	DB	054H
	DB	06dH
	DB	070H
	DB	00H
	ORG $+11
??$swap@PEAVclassA@@$0A@@std@@YAXAEAPEAVclassA@@0@Z$rtcVarDesc DD 028H ; std::swap<classA *,0>
	DD	08H
	DQ	FLAT:??$swap@PEAVclassA@@$0A@@std@@YAXAEAPEAVclassA@@0@Z$rtcName$0
	ORG $+48
??$swap@PEAVclassA@@$0A@@std@@YAXAEAPEAVclassA@@0@Z$rtcFrameData DD 01H ; std::swap<classA *,0>
	DD	00H
	DQ	FLAT:??$swap@PEAVclassA@@$0A@@std@@YAXAEAPEAVclassA@@0@Z$rtcVarDesc
CONST	ENDS
;	COMDAT xdata
xdata	SEGMENT
$unwind$?__autoclassinit2@?$smart@VclassA@@@@QEAAX_K@Z DD 05051601H
	DD	01130316H
	DD	0700c0019H
	DD	0500bH
xdata	ENDS
;	COMDAT xdata
xdata	SEGMENT
$unwind$??B?$smart@VclassA@@@@QEAA_NXZ DD 025051301H
	DD	010e2313H
	DD	07007001fH
	DD	05006H
xdata	ENDS
;	COMDAT xdata
xdata	SEGMENT
$unwind$??C?$smart@VclassA@@@@QEAAPEAVclassA@@XZ DD 025051301H
	DD	010e2313H
	DD	07007001dH
	DD	05006H
xdata	ENDS
;	COMDAT voltbl
voltbl	SEGMENT
_volmd	DB	03bH
	DB	0caH
voltbl	ENDS
;	COMDAT xdata
xdata	SEGMENT
$unwind$??4?$smart@VclassA@@@@QEAAAEAV0@AEBV0@@Z DD 025054219H
	DD	01132318H
	DD	0700c0027H
	DD	0500bH
	DD	imagerel __GSHandlerCheck
	DD	0128H
xdata	ENDS
;	COMDAT CONST
CONST	SEGMENT
??4?$smart@VclassA@@@@QEAAAEAV0@AEBV0@@Z$rtcName$0 DB 074H ; smart<classA>::operator=
	DB	065H
	DB	06dH
	DB	070H
	DB	00H
	ORG $+11
??4?$smart@VclassA@@@@QEAAAEAV0@AEBV0@@Z$rtcVarDesc DD 028H ; smart<classA>::operator=
	DD	010H
	DQ	FLAT:??4?$smart@VclassA@@@@QEAAAEAV0@AEBV0@@Z$rtcName$0
	ORG $+48
??4?$smart@VclassA@@@@QEAAAEAV0@AEBV0@@Z$rtcFrameData DD 01H ; smart<classA>::operator=
	DD	00H
	DQ	FLAT:??4?$smart@VclassA@@@@QEAAAEAV0@AEBV0@@Z$rtcVarDesc
CONST	ENDS
;	COMDAT xdata
xdata	SEGMENT
$unwind$??0?$smart@VclassA@@@@QEAA@AEBV0@@Z DD 025051801H
	DD	01132318H
	DD	0700c001dH
	DD	0500bH
xdata	ENDS
;	COMDAT xdata
xdata	SEGMENT
$unwind$??1?$smart@VclassA@@@@QEAA@XZ DD 025051301H
	DD	010e2313H
	DD	070070025H
	DD	05006H
xdata	ENDS
;	COMDAT xdata
xdata	SEGMENT
$unwind$??0?$smart@VclassA@@@@QEAA@PEAVclassA@@@Z DD 025051801H
	DD	01132318H
	DD	0700c0021H
	DD	0500bH
xdata	ENDS
;	COMDAT voltbl
voltbl	SEGMENT
_volmd	DB	00H
	DB	05H
voltbl	ENDS
;	COMDAT voltbl
voltbl	SEGMENT
_volmd	DB	00H
	DB	05H
voltbl	ENDS
;	COMDAT voltbl
voltbl	SEGMENT
_volmd	DB	00H
	DB	05H
voltbl	ENDS
;	COMDAT voltbl
voltbl	SEGMENT
_volmd	DB	00H
	DB	05H
voltbl	ENDS
;	COMDAT voltbl
voltbl	SEGMENT
_volmd	DB	00H
	DB	05H
voltbl	ENDS
;	COMDAT voltbl
voltbl	SEGMENT
_volmd	DW	02aH
	DW	02baH
voltbl	ENDS
;	COMDAT xdata
xdata	SEGMENT
$unwind$main$dtor$4 DD 031001H
	DD	0700c4210H
	DD	0500bH
xdata	ENDS
;	COMDAT xdata
xdata	SEGMENT
$unwind$main$dtor$3 DD 031001H
	DD	0700c4210H
	DD	0500bH
xdata	ENDS
;	COMDAT xdata
xdata	SEGMENT
$unwind$main$dtor$2 DD 031001H
	DD	0700c4210H
	DD	0500bH
xdata	ENDS
;	COMDAT xdata
xdata	SEGMENT
$unwind$main$dtor$1 DD 031001H
	DD	0700c4210H
	DD	0500bH
xdata	ENDS
;	COMDAT xdata
xdata	SEGMENT
$unwind$main$dtor$0 DD 031001H
	DD	0700c4210H
	DD	0500bH
xdata	ENDS
;	COMDAT xdata
xdata	SEGMENT
$ip2state$main DB 016H
	DB	00H
	DB	00H
	DB	09cH
	DB	02H
	DB	'p'
	DB	00H
	DB	0d0H
	DB	04H
	DB	'p'
	DB	00H
	DB	'"'
	DB	06H
	DB	0d6H
	DB	08H
	DB	0deH
	DB	0aH
	DB	0deH
	DB	08H
	DB	01aH
	DB	06H
	DB	014H
	DB	00H
xdata	ENDS
;	COMDAT xdata
xdata	SEGMENT
$stateUnwindMap$main DB 0aH
	DB	0eH
	DD	imagerel main$dtor$0
	DB	036H
	DD	imagerel main$dtor$1
	DB	05eH
	DD	imagerel main$dtor$2
	DB	02eH
	DD	imagerel main$dtor$3
	DB	02eH
	DD	imagerel main$dtor$4
xdata	ENDS
;	COMDAT xdata
xdata	SEGMENT
$cppxdata$main DB 028H
	DD	imagerel $stateUnwindMap$main
	DD	imagerel $ip2state$main
xdata	ENDS
;	COMDAT xdata
xdata	SEGMENT
$unwind$main DD	025053119H
	DD	010a230fH
	DD	070030049H
	DD	05002H
	DD	imagerel __GSHandlerCheck_EH4
	DD	imagerel $cppxdata$main
	DD	0232H
xdata	ENDS
;	COMDAT CONST
CONST	SEGMENT
main$rtcName$0 DB 073H
	DB	070H
	DB	031H
	DB	00H
main$rtcName$1 DB 073H
	DB	070H
	DB	032H
	DB	00H
main$rtcName$2 DB 073H
	DB	070H
	DB	033H
	DB	00H
	ORG $+4
main$rtcVarDesc DD 0a8H
	DD	010H
	DQ	FLAT:main$rtcName$2
	DD	078H
	DD	010H
	DQ	FLAT:main$rtcName$1
	DD	048H
	DD	010H
	DQ	FLAT:main$rtcName$0
	ORG $+144
main$rtcFrameData DD 03H
	DD	00H
	DQ	FLAT:main$rtcVarDesc
CONST	ENDS
;	COMDAT xdata
xdata	SEGMENT
$unwind$??$endl@DU?$char_traits@D@std@@@std@@YAAEAV?$basic_ostream@DU?$char_traits@D@std@@@0@AEAV10@@Z DD 025051301H
	DD	010e2313H
	DD	07007001fH
	DD	05006H
xdata	ENDS
;	COMDAT voltbl
voltbl	SEGMENT
_volmd	DB	00H
	DB	05H
voltbl	ENDS
;	COMDAT voltbl
voltbl	SEGMENT
_volmd	DB	00H
	DB	05H
voltbl	ENDS
;	COMDAT voltbl
voltbl	SEGMENT
_volmd	DW	03bH
	DW	044dH
voltbl	ENDS
;	COMDAT xdata
xdata	SEGMENT
$unwind$?catch$1@?0???$?6U?$char_traits@D@std@@@std@@YAAEAV?$basic_ostream@DU?$char_traits@D@std@@@0@AEAV10@PEBD@Z@4HA DD 031001H
	DD	0700c4210H
	DD	0500bH
xdata	ENDS
;	COMDAT xdata
xdata	SEGMENT
$unwind$?dtor$0@?0???$?6U?$char_traits@D@std@@@std@@YAAEAV?$basic_ostream@DU?$char_traits@D@std@@@0@AEAV10@PEBD@Z@4HA DD 031001H
	DD	0700c4210H
	DD	0500bH
xdata	ENDS
;	COMDAT xdata
xdata	SEGMENT
$ip2state$??$?6U?$char_traits@D@std@@@std@@YAAEAV?$basic_ostream@DU?$char_traits@D@std@@@0@AEAV10@PEBD@Z DB 0aH
	DB	00H
	DB	00H
	DB	'A', 04H
	DB	02H
	DB	'<'
	DB	04H
	DB	0d1H, 0aH
	DB	02H
	DB	08aH
	DB	00H
xdata	ENDS
;	COMDAT xdata
xdata	SEGMENT
$handlerMap$??$?6U?$char_traits@D@std@@@std@@YAAEAV?$basic_ostream@DU?$char_traits@D@std@@@0@AEAV10@PEBD@Z DB 02H
	DB	01H
	DB	080H
	DD	imagerel ?catch$1@?0???$?6U?$char_traits@D@std@@@std@@YAAEAV?$basic_ostream@DU?$char_traits@D@std@@@0@AEAV10@PEBD@Z@4HA
xdata	ENDS
;	COMDAT xdata
xdata	SEGMENT
$tryMap$??$?6U?$char_traits@D@std@@@std@@YAAEAV?$basic_ostream@DU?$char_traits@D@std@@@0@AEAV10@PEBD@Z DB 02H
	DB	02H
	DB	02H
	DB	04H
	DD	imagerel $handlerMap$??$?6U?$char_traits@D@std@@@std@@YAAEAV?$basic_ostream@DU?$char_traits@D@std@@@0@AEAV10@PEBD@Z
xdata	ENDS
;	COMDAT xdata
xdata	SEGMENT
$stateUnwindMap$??$?6U?$char_traits@D@std@@@std@@YAAEAV?$basic_ostream@DU?$char_traits@D@std@@@0@AEAV10@PEBD@Z DB 06H
	DB	0eH
	DD	imagerel ?dtor$0@?0???$?6U?$char_traits@D@std@@@std@@YAAEAV?$basic_ostream@DU?$char_traits@D@std@@@0@AEAV10@PEBD@Z@4HA
	DB	028H
	DB	030H
xdata	ENDS
;	COMDAT xdata
xdata	SEGMENT
$cppxdata$??$?6U?$char_traits@D@std@@@std@@YAAEAV?$basic_ostream@DU?$char_traits@D@std@@@0@AEAV10@PEBD@Z DB 038H
	DD	imagerel $stateUnwindMap$??$?6U?$char_traits@D@std@@@std@@YAAEAV?$basic_ostream@DU?$char_traits@D@std@@@0@AEAV10@PEBD@Z
	DD	imagerel $tryMap$??$?6U?$char_traits@D@std@@@std@@YAAEAV?$basic_ostream@DU?$char_traits@D@std@@@0@AEAV10@PEBD@Z
	DD	imagerel $ip2state$??$?6U?$char_traits@D@std@@@std@@YAAEAV?$basic_ostream@DU?$char_traits@D@std@@@0@AEAV10@PEBD@Z
xdata	ENDS
;	COMDAT xdata
xdata	SEGMENT
$unwind$??$?6U?$char_traits@D@std@@@std@@YAAEAV?$basic_ostream@DU?$char_traits@D@std@@@0@AEAV10@PEBD@Z DD 025054219H
	DD	01132318H
	DD	0700c0047H
	DD	0500bH
	DD	imagerel __GSHandlerCheck_EH4
	DD	imagerel $cppxdata$??$?6U?$char_traits@D@std@@@std@@YAAEAV?$basic_ostream@DU?$char_traits@D@std@@@0@AEAV10@PEBD@Z
	DD	0223H
xdata	ENDS
;	COMDAT CONST
CONST	SEGMENT
??$?6U?$char_traits@D@std@@@std@@YAAEAV?$basic_ostream@DU?$char_traits@D@std@@@0@AEAV10@PEBD@Z$rtcName$0 DB 05fH ; std::operator<<<std::char_traits<char> >
	DB	04fH
	DB	06bH
	DB	00H
	ORG $+12
??$?6U?$char_traits@D@std@@@std@@YAAEAV?$basic_ostream@DU?$char_traits@D@std@@@0@AEAV10@PEBD@Z$rtcVarDesc DD 088H ; std::operator<<<std::char_traits<char> >
	DD	010H
	DQ	FLAT:??$?6U?$char_traits@D@std@@@std@@YAAEAV?$basic_ostream@DU?$char_traits@D@std@@@0@AEAV10@PEBD@Z$rtcName$0
	ORG $+48
??$?6U?$char_traits@D@std@@@std@@YAAEAV?$basic_ostream@DU?$char_traits@D@std@@@0@AEAV10@PEBD@Z$rtcFrameData DD 01H ; std::operator<<<std::char_traits<char> >
	DD	00H
	DQ	FLAT:??$?6U?$char_traits@D@std@@@std@@YAAEAV?$basic_ostream@DU?$char_traits@D@std@@@0@AEAV10@PEBD@Z$rtcVarDesc
CONST	ENDS
;	COMDAT xdata
xdata	SEGMENT
$unwind$??_GclassA@@QEAAPEAXI@Z DD 025051701H
	DD	01122317H
	DD	0700b001dH
	DD	0500aH
xdata	ENDS
;	COMDAT xdata
xdata	SEGMENT
$unwind$?func@classA@@QEAAXXZ DD 025051301H
	DD	010e2313H
	DD	07007001fH
	DD	05006H
xdata	ENDS
;	COMDAT xdata
xdata	SEGMENT
$ip2state$??1classA@@QEAA@XZ DB 02H
	DB	00H
	DB	00H
xdata	ENDS
;	COMDAT xdata
xdata	SEGMENT
$cppxdata$??1classA@@QEAA@XZ DB 060H
	DD	imagerel $ip2state$??1classA@@QEAA@XZ
xdata	ENDS
;	COMDAT xdata
xdata	SEGMENT
$unwind$??1classA@@QEAA@XZ DD 025051319H
	DD	010e2313H
	DD	07007001fH
	DD	05006H
	DD	imagerel __CxxFrameHandler4
	DD	imagerel $cppxdata$??1classA@@QEAA@XZ
xdata	ENDS
;	COMDAT xdata
xdata	SEGMENT
$unwind$??0classA@@QEAA@XZ DD 025051301H
	DD	010e2313H
	DD	07007001fH
	DD	05006H
xdata	ENDS
;	COMDAT xdata
xdata	SEGMENT
$unwind$?eof@?$_Narrow_char_traits@DH@std@@SAHXZ DD 025050f01H
	DD	010a230fH
	DD	07003001dH
	DD	05002H
xdata	ENDS
;	COMDAT xdata
xdata	SEGMENT
$unwind$?eq_int_type@?$_Narrow_char_traits@DH@std@@SA_NAEBH0@Z DD 025051801H
	DD	01132318H
	DD	0700c001fH
	DD	0500bH
xdata	ENDS
;	COMDAT xdata
xdata	SEGMENT
$unwind$?length@?$_Narrow_char_traits@DH@std@@SA_KQEBD@Z DD 025051301H
	DD	010e2313H
	DD	07007001fH
	DD	05006H
xdata	ENDS
;	COMDAT xdata
xdata	SEGMENT
$unwind$?__empty_global_delete@@YAXPEAX_KW4align_val_t@std@@@Z DD 025051d01H
	DD	0118231dH
	DD	07011001dH
	DD	05010H
xdata	ENDS
;	COMDAT xdata
xdata	SEGMENT
$unwind$?__empty_global_delete@@YAXPEAXW4align_val_t@std@@@Z DD 025051801H
	DD	01132318H
	DD	0700c001dH
	DD	0500bH
xdata	ENDS
;	COMDAT xdata
xdata	SEGMENT
$unwind$?__empty_global_delete@@YAXPEAX_K@Z DD 025051801H
	DD	01132318H
	DD	0700c001dH
	DD	0500bH
xdata	ENDS
;	COMDAT xdata
xdata	SEGMENT
$unwind$?__empty_global_delete@@YAXPEAX@Z DD 025051301H
	DD	010e2313H
	DD	07007001dH
	DD	05006H
xdata	ENDS
; Function compile flags: /Odt
;	COMDAT __JustMyCode_Default
_TEXT	SEGMENT
__JustMyCode_Default PROC				; COMDAT
	ret	0
__JustMyCode_Default ENDP
_TEXT	ENDS
; Function compile flags: /Odtp /RTCsu /ZI
; File C:\Program Files (x86)\Microsoft Visual Studio\2019\Community\VC\Tools\MSVC\14.29.30133\include\type_traits
;	COMDAT ??$move@AEAPEAH@std@@YA$$QEAPEAHAEAPEAH@Z
_TEXT	SEGMENT
_Arg$ = 224
??$move@AEAPEAH@std@@YA$$QEAPEAHAEAPEAH@Z PROC		; std::move<int * &>, COMDAT

; 1396 : _NODISCARD constexpr remove_reference_t<_Ty>&& move(_Ty&& _Arg) noexcept { // forward _Arg as movable

$LN3:
	mov	QWORD PTR [rsp+8], rcx
	push	rbp
	push	rdi
	sub	rsp, 232				; 000000e8H
	lea	rbp, QWORD PTR [rsp+32]
	lea	rcx, OFFSET FLAT:__589FA321_type_traits
	call	__CheckForDebuggerJustMyCode

; 1397 :     return static_cast<remove_reference_t<_Ty>&&>(_Arg);

	mov	rax, QWORD PTR _Arg$[rbp]

; 1398 : }

	lea	rsp, QWORD PTR [rbp+200]
	pop	rdi
	pop	rbp
	ret	0
??$move@AEAPEAH@std@@YA$$QEAPEAHAEAPEAH@Z ENDP		; std::move<int * &>
_TEXT	ENDS
; Function compile flags: /Odtp /RTCsu /ZI
; File C:\Program Files (x86)\Microsoft Visual Studio\2019\Community\VC\Tools\MSVC\14.29.30133\include\type_traits
;	COMDAT ??$move@AEAPEAVclassA@@@std@@YA$$QEAPEAVclassA@@AEAPEAV1@@Z
_TEXT	SEGMENT
_Arg$ = 224
??$move@AEAPEAVclassA@@@std@@YA$$QEAPEAVclassA@@AEAPEAV1@@Z PROC ; std::move<classA * &>, COMDAT

; 1396 : _NODISCARD constexpr remove_reference_t<_Ty>&& move(_Ty&& _Arg) noexcept { // forward _Arg as movable

$LN3:
	mov	QWORD PTR [rsp+8], rcx
	push	rbp
	push	rdi
	sub	rsp, 232				; 000000e8H
	lea	rbp, QWORD PTR [rsp+32]
	lea	rcx, OFFSET FLAT:__589FA321_type_traits
	call	__CheckForDebuggerJustMyCode

; 1397 :     return static_cast<remove_reference_t<_Ty>&&>(_Arg);

	mov	rax, QWORD PTR _Arg$[rbp]

; 1398 : }

	lea	rsp, QWORD PTR [rbp+200]
	pop	rdi
	pop	rbp
	ret	0
??$move@AEAPEAVclassA@@@std@@YA$$QEAPEAVclassA@@AEAPEAV1@@Z ENDP ; std::move<classA * &>
_TEXT	ENDS
; Function compile flags: /Odtp /RTCsu /ZI
; File C:\Program Files (x86)\Microsoft Visual Studio\2019\Community\VC\Tools\MSVC\14.29.30133\include\ostream
;	COMDAT ??Bsentry@?$basic_ostream@DU?$char_traits@D@std@@@std@@QEBA_NXZ
_TEXT	SEGMENT
this$ = 224
??Bsentry@?$basic_ostream@DU?$char_traits@D@std@@@std@@QEBA_NXZ PROC ; std::basic_ostream<char,std::char_traits<char> >::sentry::operator bool, COMDAT

; 123  :         explicit __CLR_OR_THIS_CALL operator bool() const {

$LN3:
	mov	QWORD PTR [rsp+8], rcx
	push	rbp
	push	rdi
	sub	rsp, 232				; 000000e8H
	lea	rbp, QWORD PTR [rsp+32]
	lea	rcx, OFFSET FLAT:__C12F3EA4_ostream
	call	__CheckForDebuggerJustMyCode

; 124  :             return _Ok;

	mov	rax, QWORD PTR this$[rbp]
	movzx	eax, BYTE PTR [rax+8]

; 125  :         }

	lea	rsp, QWORD PTR [rbp+200]
	pop	rdi
	pop	rbp
	ret	0
??Bsentry@?$basic_ostream@DU?$char_traits@D@std@@@std@@QEBA_NXZ ENDP ; std::basic_ostream<char,std::char_traits<char> >::sentry::operator bool
_TEXT	ENDS
; Function compile flags: /Odtp /RTCsu /ZI
; File C:\Program Files (x86)\Microsoft Visual Studio\2019\Community\VC\Tools\MSVC\14.29.30133\include\ostream
;	COMDAT ??1sentry@?$basic_ostream@DU?$char_traits@D@std@@@std@@QEAA@XZ
_TEXT	SEGMENT
_Zero_uncaught_exceptions$ = 4
tv71 = 212
this$ = 256
??1sentry@?$basic_ostream@DU?$char_traits@D@std@@@std@@QEAA@XZ PROC ; std::basic_ostream<char,std::char_traits<char> >::sentry::~sentry, COMDAT

; 108  :         __CLR_OR_THIS_CALL ~sentry() noexcept {

$LN6:
	mov	QWORD PTR [rsp+8], rcx
	push	rbp
	push	rdi
	sub	rsp, 264				; 00000108H
	lea	rbp, QWORD PTR [rsp+32]
	lea	rcx, OFFSET FLAT:__C12F3EA4_ostream
	call	__CheckForDebuggerJustMyCode

; 109  : #if !_HAS_EXCEPTIONS
; 110  :             const bool _Zero_uncaught_exceptions = true;
; 111  : #elif _HAS_DEPRECATED_UNCAUGHT_EXCEPTION
; 112  :             const bool _Zero_uncaught_exceptions = !_STD uncaught_exception(); // TRANSITION, ArchivedOS-12000909
; 113  : #else // ^^^ _HAS_DEPRECATED_UNCAUGHT_EXCEPTION / !_HAS_DEPRECATED_UNCAUGHT_EXCEPTION vvv
; 114  :             const bool _Zero_uncaught_exceptions = _STD uncaught_exceptions() == 0;

	call	?uncaught_exceptions@std@@YAHXZ		; std::uncaught_exceptions
	test	eax, eax
	jne	SHORT $LN4@sentry
	mov	BYTE PTR tv71[rbp], 1
	jmp	SHORT $LN5@sentry
$LN4@sentry:
	mov	BYTE PTR tv71[rbp], 0
$LN5@sentry:
	movzx	eax, BYTE PTR tv71[rbp]
	mov	BYTE PTR _Zero_uncaught_exceptions$[rbp], al

; 115  : #endif // !_HAS_DEPRECATED_UNCAUGHT_EXCEPTION
; 116  : 
; 117  :             if (_Zero_uncaught_exceptions) {

	movzx	eax, BYTE PTR _Zero_uncaught_exceptions$[rbp]
	test	eax, eax
	je	SHORT $LN2@sentry

; 118  :                 this->_Myostr._Osfx();

	mov	rax, QWORD PTR this$[rbp]
	mov	rcx, QWORD PTR [rax]
	call	QWORD PTR __imp_?_Osfx@?$basic_ostream@DU?$char_traits@D@std@@@std@@QEAAXXZ
$LN2@sentry:

; 119  :             }
; 120  :         }

	mov	rcx, QWORD PTR this$[rbp]
	call	??1_Sentry_base@?$basic_ostream@DU?$char_traits@D@std@@@std@@QEAA@XZ ; std::basic_ostream<char,std::char_traits<char> >::_Sentry_base::~_Sentry_base
	npad	1
	lea	rsp, QWORD PTR [rbp+232]
	pop	rdi
	pop	rbp
	ret	0
??1sentry@?$basic_ostream@DU?$char_traits@D@std@@@std@@QEAA@XZ ENDP ; std::basic_ostream<char,std::char_traits<char> >::sentry::~sentry
_TEXT	ENDS
; Function compile flags: /Odtp /RTCsu /ZI
; File C:\Program Files (x86)\Microsoft Visual Studio\2019\Community\VC\Tools\MSVC\14.29.30133\include\ostream
;	COMDAT ??0sentry@?$basic_ostream@DU?$char_traits@D@std@@@std@@QEAA@AEAV12@@Z
_TEXT	SEGMENT
_Tied$ = 8
this$ = 256
_Ostr$ = 264
??0sentry@?$basic_ostream@DU?$char_traits@D@std@@@std@@QEAA@AEAV12@@Z PROC ; std::basic_ostream<char,std::char_traits<char> >::sentry::sentry, COMDAT

; 91   :         explicit __CLR_OR_THIS_CALL sentry(basic_ostream& _Ostr) : _Sentry_base(_Ostr) {

$LN7:
	mov	QWORD PTR [rsp+16], rdx
	mov	QWORD PTR [rsp+8], rcx
	push	rbp
	push	rdi
	sub	rsp, 264				; 00000108H
	lea	rbp, QWORD PTR [rsp+32]
	lea	rcx, OFFSET FLAT:__C12F3EA4_ostream
	call	__CheckForDebuggerJustMyCode
	mov	rdx, QWORD PTR _Ostr$[rbp]
	mov	rcx, QWORD PTR this$[rbp]
	call	??0_Sentry_base@?$basic_ostream@DU?$char_traits@D@std@@@std@@QEAA@AEAV12@@Z ; std::basic_ostream<char,std::char_traits<char> >::_Sentry_base::_Sentry_base
	npad	1

; 92   :             if (!_Ostr.good()) {

	mov	rax, QWORD PTR _Ostr$[rbp]
	mov	rax, QWORD PTR [rax]
	movsxd	rax, DWORD PTR [rax+4]
	mov	rcx, QWORD PTR _Ostr$[rbp]
	add	rcx, rax
	mov	rax, rcx
	mov	rcx, rax
	call	QWORD PTR __imp_?good@ios_base@std@@QEBA_NXZ
	movzx	eax, al
	test	eax, eax
	jne	SHORT $LN2@sentry

; 93   :                 _Ok = false;

	mov	rax, QWORD PTR this$[rbp]
	mov	BYTE PTR [rax+8], 0

; 94   :                 return;

	jmp	$LN1@sentry
$LN2@sentry:

; 95   :             }
; 96   : 
; 97   :             const auto _Tied = _Ostr.tie();

	mov	rax, QWORD PTR _Ostr$[rbp]
	mov	rax, QWORD PTR [rax]
	movsxd	rax, DWORD PTR [rax+4]
	mov	rcx, QWORD PTR _Ostr$[rbp]
	add	rcx, rax
	mov	rax, rcx
	mov	rcx, rax
	call	QWORD PTR __imp_?tie@?$basic_ios@DU?$char_traits@D@std@@@std@@QEBAPEAV?$basic_ostream@DU?$char_traits@D@std@@@2@XZ
	mov	QWORD PTR _Tied$[rbp], rax

; 98   :             if (!_Tied || _Tied == &_Ostr) {

	cmp	QWORD PTR _Tied$[rbp], 0
	je	SHORT $LN4@sentry
	mov	rax, QWORD PTR _Ostr$[rbp]
	cmp	QWORD PTR _Tied$[rbp], rax
	jne	SHORT $LN3@sentry
$LN4@sentry:

; 99   :                 _Ok = true;

	mov	rax, QWORD PTR this$[rbp]
	mov	BYTE PTR [rax+8], 1

; 100  :                 return;

	jmp	SHORT $LN1@sentry
$LN3@sentry:

; 101  :             }
; 102  : 
; 103  :             _Tied->flush();

	mov	rcx, QWORD PTR _Tied$[rbp]
	call	QWORD PTR __imp_?flush@?$basic_ostream@DU?$char_traits@D@std@@@std@@QEAAAEAV12@XZ

; 104  :             _Ok = _Ostr.good(); // store test only after flushing tie

	mov	rax, QWORD PTR _Ostr$[rbp]
	mov	rax, QWORD PTR [rax]
	movsxd	rax, DWORD PTR [rax+4]
	mov	rcx, QWORD PTR _Ostr$[rbp]
	add	rcx, rax
	mov	rax, rcx
	mov	rcx, rax
	call	QWORD PTR __imp_?good@ios_base@std@@QEBA_NXZ
	mov	rcx, QWORD PTR this$[rbp]
	mov	BYTE PTR [rcx+8], al
$LN1@sentry:

; 105  :         }

	mov	rax, QWORD PTR this$[rbp]
	lea	rsp, QWORD PTR [rbp+232]
	pop	rdi
	pop	rbp
	ret	0
??0sentry@?$basic_ostream@DU?$char_traits@D@std@@@std@@QEAA@AEAV12@@Z ENDP ; std::basic_ostream<char,std::char_traits<char> >::sentry::sentry
_TEXT	ENDS
;	COMDAT text$x
text$x	SEGMENT
_Tied$ = 8
this$ = 256
_Ostr$ = 264
?dtor$0@?0???0sentry@?$basic_ostream@DU?$char_traits@D@std@@@std@@QEAA@AEAV12@@Z@4HA PROC ; `std::basic_ostream<char,std::char_traits<char> >::sentry::sentry'::`1'::dtor$0
	mov	QWORD PTR [rsp+8], rcx
	mov	QWORD PTR [rsp+16], rdx
	push	rbp
	push	rdi
	sub	rsp, 40					; 00000028H
	lea	rbp, QWORD PTR [rdx+32]
	mov	rcx, QWORD PTR this$[rbp]
	call	??1_Sentry_base@?$basic_ostream@DU?$char_traits@D@std@@@std@@QEAA@XZ ; std::basic_ostream<char,std::char_traits<char> >::_Sentry_base::~_Sentry_base
	add	rsp, 40					; 00000028H
	pop	rdi
	pop	rbp
	ret	0
?dtor$0@?0???0sentry@?$basic_ostream@DU?$char_traits@D@std@@@std@@QEAA@AEAV12@@Z@4HA ENDP ; `std::basic_ostream<char,std::char_traits<char> >::sentry::sentry'::`1'::dtor$0
text$x	ENDS
; Function compile flags: /Odtp /RTCsu /ZI
;	COMDAT text$x
text$x	SEGMENT
_Tied$ = 8
this$ = 256
_Ostr$ = 264
?dtor$0@?0???0sentry@?$basic_ostream@DU?$char_traits@D@std@@@std@@QEAA@AEAV12@@Z@4HA PROC ; `std::basic_ostream<char,std::char_traits<char> >::sentry::sentry'::`1'::dtor$0
	mov	QWORD PTR [rsp+8], rcx
	mov	QWORD PTR [rsp+16], rdx
	push	rbp
	push	rdi
	sub	rsp, 40					; 00000028H
	lea	rbp, QWORD PTR [rdx+32]
	mov	rcx, QWORD PTR this$[rbp]
	call	??1_Sentry_base@?$basic_ostream@DU?$char_traits@D@std@@@std@@QEAA@XZ ; std::basic_ostream<char,std::char_traits<char> >::_Sentry_base::~_Sentry_base
	add	rsp, 40					; 00000028H
	pop	rdi
	pop	rbp
	ret	0
?dtor$0@?0???0sentry@?$basic_ostream@DU?$char_traits@D@std@@@std@@QEAA@AEAV12@@Z@4HA ENDP ; `std::basic_ostream<char,std::char_traits<char> >::sentry::sentry'::`1'::dtor$0
text$x	ENDS
; Function compile flags: /Odtp /RTCsu /ZI
; File C:\Program Files (x86)\Microsoft Visual Studio\2019\Community\VC\Tools\MSVC\14.29.30133\include\ostream
;	COMDAT ??1_Sentry_base@?$basic_ostream@DU?$char_traits@D@std@@@std@@QEAA@XZ
_TEXT	SEGMENT
_Rdbuf$ = 8
tv72 = 216
this$ = 256
??1_Sentry_base@?$basic_ostream@DU?$char_traits@D@std@@@std@@QEAA@XZ PROC ; std::basic_ostream<char,std::char_traits<char> >::_Sentry_base::~_Sentry_base, COMDAT

; 77   :         __CLR_OR_THIS_CALL ~_Sentry_base() noexcept { // destroy after unlocking

$LN4:
	mov	QWORD PTR [rsp+8], rcx
	push	rbp
	push	rdi
	sub	rsp, 264				; 00000108H
	lea	rbp, QWORD PTR [rsp+32]
	lea	rcx, OFFSET FLAT:__C12F3EA4_ostream
	call	__CheckForDebuggerJustMyCode

; 78   :             const auto _Rdbuf = _Myostr.rdbuf();

	mov	rax, QWORD PTR this$[rbp]
	mov	rax, QWORD PTR [rax]
	mov	QWORD PTR tv72[rbp], rax
	mov	rax, QWORD PTR tv72[rbp]
	mov	rax, QWORD PTR [rax]
	movsxd	rax, DWORD PTR [rax+4]
	mov	rcx, QWORD PTR tv72[rbp]
	add	rcx, rax
	mov	rax, rcx
	mov	rcx, rax
	call	QWORD PTR __imp_?rdbuf@?$basic_ios@DU?$char_traits@D@std@@@std@@QEBAPEAV?$basic_streambuf@DU?$char_traits@D@std@@@2@XZ
	mov	QWORD PTR _Rdbuf$[rbp], rax

; 79   :             if (_Rdbuf) {

	cmp	QWORD PTR _Rdbuf$[rbp], 0
	je	SHORT $LN2@Sentry_bas

; 80   :                 _Rdbuf->_Unlock();

	mov	rax, QWORD PTR _Rdbuf$[rbp]
	mov	rax, QWORD PTR [rax]
	mov	rcx, QWORD PTR _Rdbuf$[rbp]
	call	QWORD PTR [rax+16]
	npad	1
$LN2@Sentry_bas:

; 81   :             }
; 82   :         }

	lea	rsp, QWORD PTR [rbp+232]
	pop	rdi
	pop	rbp
	ret	0
??1_Sentry_base@?$basic_ostream@DU?$char_traits@D@std@@@std@@QEAA@XZ ENDP ; std::basic_ostream<char,std::char_traits<char> >::_Sentry_base::~_Sentry_base
_TEXT	ENDS
; Function compile flags: /Odtp /RTCsu /ZI
; File C:\Program Files (x86)\Microsoft Visual Studio\2019\Community\VC\Tools\MSVC\14.29.30133\include\ostream
;	COMDAT ??0_Sentry_base@?$basic_ostream@DU?$char_traits@D@std@@@std@@QEAA@AEAV12@@Z
_TEXT	SEGMENT
_Rdbuf$ = 8
tv73 = 216
this$ = 256
_Ostr$ = 264
??0_Sentry_base@?$basic_ostream@DU?$char_traits@D@std@@@std@@QEAA@AEAV12@@Z PROC ; std::basic_ostream<char,std::char_traits<char> >::_Sentry_base::_Sentry_base, COMDAT

; 70   :         __CLR_OR_THIS_CALL _Sentry_base(basic_ostream& _Ostr) : _Myostr(_Ostr) { // lock the stream buffer, if there

$LN4:
	mov	QWORD PTR [rsp+16], rdx
	mov	QWORD PTR [rsp+8], rcx
	push	rbp
	push	rdi
	sub	rsp, 264				; 00000108H
	lea	rbp, QWORD PTR [rsp+32]
	lea	rcx, OFFSET FLAT:__C12F3EA4_ostream
	call	__CheckForDebuggerJustMyCode
	mov	rax, QWORD PTR this$[rbp]
	mov	rcx, QWORD PTR _Ostr$[rbp]
	mov	QWORD PTR [rax], rcx

; 71   :             const auto _Rdbuf = _Myostr.rdbuf();

	mov	rax, QWORD PTR this$[rbp]
	mov	rax, QWORD PTR [rax]
	mov	QWORD PTR tv73[rbp], rax
	mov	rax, QWORD PTR tv73[rbp]
	mov	rax, QWORD PTR [rax]
	movsxd	rax, DWORD PTR [rax+4]
	mov	rcx, QWORD PTR tv73[rbp]
	add	rcx, rax
	mov	rax, rcx
	mov	rcx, rax
	call	QWORD PTR __imp_?rdbuf@?$basic_ios@DU?$char_traits@D@std@@@std@@QEBAPEAV?$basic_streambuf@DU?$char_traits@D@std@@@2@XZ
	mov	QWORD PTR _Rdbuf$[rbp], rax

; 72   :             if (_Rdbuf) {

	cmp	QWORD PTR _Rdbuf$[rbp], 0
	je	SHORT $LN2@Sentry_bas

; 73   :                 _Rdbuf->_Lock();

	mov	rax, QWORD PTR _Rdbuf$[rbp]
	mov	rax, QWORD PTR [rax]
	mov	rcx, QWORD PTR _Rdbuf$[rbp]
	call	QWORD PTR [rax+8]
$LN2@Sentry_bas:

; 74   :             }
; 75   :         }

	mov	rax, QWORD PTR this$[rbp]
	lea	rsp, QWORD PTR [rbp+232]
	pop	rdi
	pop	rbp
	ret	0
??0_Sentry_base@?$basic_ostream@DU?$char_traits@D@std@@@std@@QEAA@AEAV12@@Z ENDP ; std::basic_ostream<char,std::char_traits<char> >::_Sentry_base::_Sentry_base
_TEXT	ENDS
; Function compile flags: /Odtp /RTCsu /ZI
; File C:\Program Files (x86)\Microsoft Visual Studio\2019\Community\VC\Tools\MSVC\14.29.30133\include\utility
;	COMDAT ??$swap@PEAH$0A@@std@@YAXAEAPEAH0@Z
_TEXT	SEGMENT
_Tmp$ = 8
__$ArrayPad$ = 216
_Left$ = 256
_Right$ = 264
??$swap@PEAH$0A@@std@@YAXAEAPEAH0@Z PROC		; std::swap<int *,0>, COMDAT

; 99   :     is_nothrow_move_constructible_v<_Ty>&& is_nothrow_move_assignable_v<_Ty>) {

$LN3:
	mov	QWORD PTR [rsp+16], rdx
	mov	QWORD PTR [rsp+8], rcx
	push	rbp
	push	rdi
	sub	rsp, 264				; 00000108H
	lea	rbp, QWORD PTR [rsp+32]
	lea	rdi, QWORD PTR [rsp+32]
	mov	ecx, 10
	mov	eax, -858993460				; ccccccccH
	rep stosd
	mov	rcx, QWORD PTR [rsp+296]
	mov	rax, QWORD PTR __security_cookie
	xor	rax, rbp
	mov	QWORD PTR __$ArrayPad$[rbp], rax
	lea	rcx, OFFSET FLAT:__1347750E_utility
	call	__CheckForDebuggerJustMyCode

; 100  :     _Ty _Tmp = _STD move(_Left);

	mov	rcx, QWORD PTR _Left$[rbp]
	call	??$move@AEAPEAH@std@@YA$$QEAPEAHAEAPEAH@Z ; std::move<int * &>
	mov	rax, QWORD PTR [rax]
	mov	QWORD PTR _Tmp$[rbp], rax

; 101  :     _Left    = _STD move(_Right);

	mov	rcx, QWORD PTR _Right$[rbp]
	call	??$move@AEAPEAH@std@@YA$$QEAPEAHAEAPEAH@Z ; std::move<int * &>
	mov	rcx, QWORD PTR _Left$[rbp]
	mov	rax, QWORD PTR [rax]
	mov	QWORD PTR [rcx], rax

; 102  :     _Right   = _STD move(_Tmp);

	lea	rcx, QWORD PTR _Tmp$[rbp]
	call	??$move@AEAPEAH@std@@YA$$QEAPEAHAEAPEAH@Z ; std::move<int * &>
	mov	rcx, QWORD PTR _Right$[rbp]
	mov	rax, QWORD PTR [rax]
	mov	QWORD PTR [rcx], rax

; 103  : }

	lea	rcx, QWORD PTR [rbp-32]
	lea	rdx, OFFSET FLAT:??$swap@PEAH$0A@@std@@YAXAEAPEAH0@Z$rtcFrameData
	call	_RTC_CheckStackVars
	mov	rcx, QWORD PTR __$ArrayPad$[rbp]
	xor	rcx, rbp
	call	__security_check_cookie
	lea	rsp, QWORD PTR [rbp+232]
	pop	rdi
	pop	rbp
	ret	0
??$swap@PEAH$0A@@std@@YAXAEAPEAH0@Z ENDP		; std::swap<int *,0>
_TEXT	ENDS
; Function compile flags: /Odtp /RTCsu /ZI
; File C:\Program Files (x86)\Microsoft Visual Studio\2019\Community\VC\Tools\MSVC\14.29.30133\include\utility
;	COMDAT ??$swap@PEAVclassA@@$0A@@std@@YAXAEAPEAVclassA@@0@Z
_TEXT	SEGMENT
_Tmp$ = 8
__$ArrayPad$ = 216
_Left$ = 256
_Right$ = 264
??$swap@PEAVclassA@@$0A@@std@@YAXAEAPEAVclassA@@0@Z PROC ; std::swap<classA *,0>, COMDAT

; 99   :     is_nothrow_move_constructible_v<_Ty>&& is_nothrow_move_assignable_v<_Ty>) {

$LN3:
	mov	QWORD PTR [rsp+16], rdx
	mov	QWORD PTR [rsp+8], rcx
	push	rbp
	push	rdi
	sub	rsp, 264				; 00000108H
	lea	rbp, QWORD PTR [rsp+32]
	lea	rdi, QWORD PTR [rsp+32]
	mov	ecx, 10
	mov	eax, -858993460				; ccccccccH
	rep stosd
	mov	rcx, QWORD PTR [rsp+296]
	mov	rax, QWORD PTR __security_cookie
	xor	rax, rbp
	mov	QWORD PTR __$ArrayPad$[rbp], rax
	lea	rcx, OFFSET FLAT:__1347750E_utility
	call	__CheckForDebuggerJustMyCode

; 100  :     _Ty _Tmp = _STD move(_Left);

	mov	rcx, QWORD PTR _Left$[rbp]
	call	??$move@AEAPEAVclassA@@@std@@YA$$QEAPEAVclassA@@AEAPEAV1@@Z ; std::move<classA * &>
	mov	rax, QWORD PTR [rax]
	mov	QWORD PTR _Tmp$[rbp], rax

; 101  :     _Left    = _STD move(_Right);

	mov	rcx, QWORD PTR _Right$[rbp]
	call	??$move@AEAPEAVclassA@@@std@@YA$$QEAPEAVclassA@@AEAPEAV1@@Z ; std::move<classA * &>
	mov	rcx, QWORD PTR _Left$[rbp]
	mov	rax, QWORD PTR [rax]
	mov	QWORD PTR [rcx], rax

; 102  :     _Right   = _STD move(_Tmp);

	lea	rcx, QWORD PTR _Tmp$[rbp]
	call	??$move@AEAPEAVclassA@@@std@@YA$$QEAPEAVclassA@@AEAPEAV1@@Z ; std::move<classA * &>
	mov	rcx, QWORD PTR _Right$[rbp]
	mov	rax, QWORD PTR [rax]
	mov	QWORD PTR [rcx], rax

; 103  : }

	lea	rcx, QWORD PTR [rbp-32]
	lea	rdx, OFFSET FLAT:??$swap@PEAVclassA@@$0A@@std@@YAXAEAPEAVclassA@@0@Z$rtcFrameData
	call	_RTC_CheckStackVars
	mov	rcx, QWORD PTR __$ArrayPad$[rbp]
	xor	rcx, rbp
	call	__security_check_cookie
	lea	rsp, QWORD PTR [rbp+232]
	pop	rdi
	pop	rbp
	ret	0
??$swap@PEAVclassA@@$0A@@std@@YAXAEAPEAVclassA@@0@Z ENDP ; std::swap<classA *,0>
_TEXT	ENDS
; Function compile flags: /Odtp /RTCsu /ZI
;	COMDAT ?__autoclassinit2@?$smart@VclassA@@@@QEAAX_K@Z
_TEXT	SEGMENT
this$ = 224
classSize$ = 232
?__autoclassinit2@?$smart@VclassA@@@@QEAAX_K@Z PROC	; smart<classA>::__autoclassinit2, COMDAT
$LN3:
	mov	QWORD PTR [rsp+16], rdx
	mov	QWORD PTR [rsp+8], rcx
	push	rbp
	push	rdi
	sub	rsp, 200				; 000000c8H
	mov	rbp, rsp
	mov	rdi, QWORD PTR this$[rbp]
	xor	eax, eax
	mov	rcx, QWORD PTR classSize$[rbp]
	rep stosb
	lea	rsp, QWORD PTR [rbp+200]
	pop	rdi
	pop	rbp
	ret	0
?__autoclassinit2@?$smart@VclassA@@@@QEAAX_K@Z ENDP	; smart<classA>::__autoclassinit2
_TEXT	ENDS
; Function compile flags: /Odtp /RTCsu /ZI
; File E:\GitHub_Clone_Repository\Modern-CPP\Intermediate\1_smart_pointer.cpp
;	COMDAT ??B?$smart@VclassA@@@@QEAA_NXZ
_TEXT	SEGMENT
tv66 = 192
this$ = 240
??B?$smart@VclassA@@@@QEAA_NXZ PROC			; smart<classA>::operator bool, COMDAT

; 107  :     {

$LN5:
	mov	QWORD PTR [rsp+8], rcx
	push	rbp
	push	rdi
	sub	rsp, 248				; 000000f8H
	lea	rbp, QWORD PTR [rsp+32]
	lea	rcx, OFFSET FLAT:__B7B93DCB_1_smart_pointer@cpp
	call	__CheckForDebuggerJustMyCode

; 108  :         return (m_ptr != nullptr);

	mov	rax, QWORD PTR this$[rbp]
	cmp	QWORD PTR [rax], 0
	je	SHORT $LN3@operator
	mov	DWORD PTR tv66[rbp], 1
	jmp	SHORT $LN4@operator
$LN3@operator:
	mov	DWORD PTR tv66[rbp], 0
$LN4@operator:
	movzx	eax, BYTE PTR tv66[rbp]

; 109  :     }

	lea	rsp, QWORD PTR [rbp+216]
	pop	rdi
	pop	rbp
	ret	0
??B?$smart@VclassA@@@@QEAA_NXZ ENDP			; smart<classA>::operator bool
_TEXT	ENDS
; Function compile flags: /Odtp /RTCsu /ZI
; File E:\GitHub_Clone_Repository\Modern-CPP\Intermediate\1_smart_pointer.cpp
;	COMDAT ??C?$smart@VclassA@@@@QEAAPEAVclassA@@XZ
_TEXT	SEGMENT
this$ = 224
??C?$smart@VclassA@@@@QEAAPEAVclassA@@XZ PROC		; smart<classA>::operator->, COMDAT

; 96   :     {

$LN3:
	mov	QWORD PTR [rsp+8], rcx
	push	rbp
	push	rdi
	sub	rsp, 232				; 000000e8H
	lea	rbp, QWORD PTR [rsp+32]
	lea	rcx, OFFSET FLAT:__B7B93DCB_1_smart_pointer@cpp
	call	__CheckForDebuggerJustMyCode

; 97   :         return m_ptr;

	mov	rax, QWORD PTR this$[rbp]
	mov	rax, QWORD PTR [rax]

; 98   :     }

	lea	rsp, QWORD PTR [rbp+200]
	pop	rdi
	pop	rbp
	ret	0
??C?$smart@VclassA@@@@QEAAPEAVclassA@@XZ ENDP		; smart<classA>::operator->
_TEXT	ENDS
; Function compile flags: /Odtp /RTCsu /ZI
; File E:\GitHub_Clone_Repository\Modern-CPP\Intermediate\1_smart_pointer.cpp
;	COMDAT ??4?$smart@VclassA@@@@QEAAAEAV0@AEBV0@@Z
_TEXT	SEGMENT
temp$ = 8
$T4 = 248
__$ArrayPad$ = 264
this$ = 304
iObj$ = 312
??4?$smart@VclassA@@@@QEAAAEAV0@AEBV0@@Z PROC		; smart<classA>::operator=, COMDAT

; 73   :     {

$LN4:
	mov	QWORD PTR [rsp+16], rdx
	mov	QWORD PTR [rsp+8], rcx
	push	rbp
	push	rdi
	sub	rsp, 312				; 00000138H
	lea	rbp, QWORD PTR [rsp+32]
	lea	rdi, QWORD PTR [rsp+32]
	mov	ecx, 22
	mov	eax, -858993460				; ccccccccH
	rep stosd
	mov	rcx, QWORD PTR [rsp+344]
	mov	rax, QWORD PTR __security_cookie
	xor	rax, rbp
	mov	QWORD PTR __$ArrayPad$[rbp], rax
	lea	rcx, OFFSET FLAT:__B7B93DCB_1_smart_pointer@cpp
	call	__CheckForDebuggerJustMyCode

; 74   :         /* Why not the below code?
; 75   :         this->m_ptr = iObj.m_ptr;
; 76   :         this->m_count = iObj.m_count;
; 77   :         (*m_count)++;
; 78   : 
; 79   :         This doesn't delete the exiting 'this' pointer object which it holds.
; 80   :         Instead it overwrites on the existing one -> causes memory leak.
; 81   :         Hence, in this case, d'tor call doesn't happen.
; 82   :         */
; 83   : 
; 84   :         // DEEP COPYING
; 85   :         smart temp(iObj); // copy c'tor called. Here the count will be increased by 1.

	mov	edx, 16
	lea	rcx, QWORD PTR temp$[rbp]
	call	?__autoclassinit2@?$smart@VclassA@@@@QEAAX_K@Z
	mov	rdx, QWORD PTR iObj$[rbp]
	lea	rcx, QWORD PTR temp$[rbp]
	call	??0?$smart@VclassA@@@@QEAA@AEBV0@@Z	; smart<classA>::smart<classA>

; 86   :         swap(this->m_ptr, temp.m_ptr);      // then swap the pointer ownerships

	mov	rax, QWORD PTR this$[rbp]
	lea	rdx, QWORD PTR temp$[rbp]
	mov	rcx, rax
	call	??$swap@PEAVclassA@@$0A@@std@@YAXAEAPEAVclassA@@0@Z ; std::swap<classA *,0>

; 87   :         swap(this->m_count, temp.m_count);

	mov	rax, QWORD PTR this$[rbp]
	add	rax, 8
	lea	rdx, QWORD PTR temp$[rbp+8]
	mov	rcx, rax
	call	??$swap@PEAH$0A@@std@@YAXAEAPEAH0@Z	; std::swap<int *,0>

; 88   :         // so, now after swapping, once the 'temp' object goes out of scope, 
; 89   :         // then, the swapped 'this (old ones)' pointer objects will be carefully destroyed.
; 90   : 
; 91   :         return *this;   // temp will be deleted here.

	mov	rax, QWORD PTR this$[rbp]
	mov	QWORD PTR $T4[rbp], rax
	lea	rcx, QWORD PTR temp$[rbp]
	call	??1?$smart@VclassA@@@@QEAA@XZ		; smart<classA>::~smart<classA>
	mov	rax, QWORD PTR $T4[rbp]

; 92   :     }

	mov	rdi, rax
	lea	rcx, QWORD PTR [rbp-32]
	lea	rdx, OFFSET FLAT:??4?$smart@VclassA@@@@QEAAAEAV0@AEBV0@@Z$rtcFrameData
	call	_RTC_CheckStackVars
	mov	rax, rdi
	mov	rcx, QWORD PTR __$ArrayPad$[rbp]
	xor	rcx, rbp
	call	__security_check_cookie
	lea	rsp, QWORD PTR [rbp+280]
	pop	rdi
	pop	rbp
	ret	0
??4?$smart@VclassA@@@@QEAAAEAV0@AEBV0@@Z ENDP		; smart<classA>::operator=
_TEXT	ENDS
; Function compile flags: /Odtp /RTCsu /ZI
; File E:\GitHub_Clone_Repository\Modern-CPP\Intermediate\1_smart_pointer.cpp
;	COMDAT ??0?$smart@VclassA@@@@QEAA@AEBV0@@Z
_TEXT	SEGMENT
this$ = 224
iObj$ = 232
??0?$smart@VclassA@@@@QEAA@AEBV0@@Z PROC		; smart<classA>::smart<classA>, COMDAT

; 67   :     {

$LN3:
	mov	QWORD PTR [rsp+16], rdx
	mov	QWORD PTR [rsp+8], rcx
	push	rbp
	push	rdi
	sub	rsp, 232				; 000000e8H
	lea	rbp, QWORD PTR [rsp+32]
	lea	rcx, OFFSET FLAT:__B7B93DCB_1_smart_pointer@cpp
	call	__CheckForDebuggerJustMyCode

; 66   :     smart(const smart& iObj) : m_ptr(iObj.m_ptr), m_count(iObj.m_count)

	mov	rax, QWORD PTR this$[rbp]
	mov	rcx, QWORD PTR iObj$[rbp]
	mov	rcx, QWORD PTR [rcx]
	mov	QWORD PTR [rax], rcx
	mov	rax, QWORD PTR this$[rbp]
	mov	rcx, QWORD PTR iObj$[rbp]
	mov	rcx, QWORD PTR [rcx+8]
	mov	QWORD PTR [rax+8], rcx

; 68   :         (*m_count)++;

	mov	rax, QWORD PTR this$[rbp]
	mov	rax, QWORD PTR [rax+8]
	mov	eax, DWORD PTR [rax]
	inc	eax
	mov	rcx, QWORD PTR this$[rbp]
	mov	rcx, QWORD PTR [rcx+8]
	mov	DWORD PTR [rcx], eax

; 69   :     }

	mov	rax, QWORD PTR this$[rbp]
	lea	rsp, QWORD PTR [rbp+200]
	pop	rdi
	pop	rbp
	ret	0
??0?$smart@VclassA@@@@QEAA@AEBV0@@Z ENDP		; smart<classA>::smart<classA>
_TEXT	ENDS
; Function compile flags: /Odtp /RTCsu /ZI
; File E:\GitHub_Clone_Repository\Modern-CPP\Intermediate\1_smart_pointer.cpp
;	COMDAT ??1?$smart@VclassA@@@@QEAA@XZ
_TEXT	SEGMENT
$T1 = 200
$T2 = 232
tv83 = 248
this$ = 288
??1?$smart@VclassA@@@@QEAA@XZ PROC			; smart<classA>::~smart<classA>, COMDAT

; 44   :     {

$LN8:
	mov	QWORD PTR [rsp+8], rcx
	push	rbp
	push	rdi
	sub	rsp, 296				; 00000128H
	lea	rbp, QWORD PTR [rsp+32]
	lea	rcx, OFFSET FLAT:__B7B93DCB_1_smart_pointer@cpp
	call	__CheckForDebuggerJustMyCode

; 45   :         if (m_count)

	mov	rax, QWORD PTR this$[rbp]
	cmp	QWORD PTR [rax+8], 0
	je	$LN2@smart

; 46   :         {
; 47   :             (*m_count)--;

	mov	rax, QWORD PTR this$[rbp]
	mov	rax, QWORD PTR [rax+8]
	mov	eax, DWORD PTR [rax]
	dec	eax
	mov	rcx, QWORD PTR this$[rbp]
	mov	rcx, QWORD PTR [rcx+8]
	mov	DWORD PTR [rcx], eax

; 48   :             if ((*m_count) == 0)

	mov	rax, QWORD PTR this$[rbp]
	mov	rax, QWORD PTR [rax+8]
	cmp	DWORD PTR [rax], 0
	jne	SHORT $LN2@smart

; 49   :             {
; 50   :                 if (m_ptr)

	mov	rax, QWORD PTR this$[rbp]
	cmp	QWORD PTR [rax], 0
	je	SHORT $LN4@smart

; 51   :                 {
; 52   :                     delete m_ptr;

	mov	rax, QWORD PTR this$[rbp]
	mov	rax, QWORD PTR [rax]
	mov	QWORD PTR $T1[rbp], rax
	cmp	QWORD PTR $T1[rbp], 0
	je	SHORT $LN6@smart
	mov	edx, 1
	mov	rcx, QWORD PTR $T1[rbp]
	call	??_GclassA@@QEAAPEAXI@Z
	mov	QWORD PTR tv83[rbp], rax
	jmp	SHORT $LN7@smart
$LN6@smart:
	mov	QWORD PTR tv83[rbp], 0
$LN7@smart:

; 53   :                     m_ptr = nullptr;

	mov	rax, QWORD PTR this$[rbp]
	mov	QWORD PTR [rax], 0
$LN4@smart:

; 54   :                 }
; 55   :                 delete m_count;

	mov	rax, QWORD PTR this$[rbp]
	mov	rax, QWORD PTR [rax+8]
	mov	QWORD PTR $T2[rbp], rax
	mov	edx, 4
	mov	rcx, QWORD PTR $T2[rbp]
	call	??3@YAXPEAX_K@Z				; operator delete
$LN2@smart:

; 56   :             }
; 57   :         }        
; 58   :     }

	lea	rsp, QWORD PTR [rbp+264]
	pop	rdi
	pop	rbp
	ret	0
??1?$smart@VclassA@@@@QEAA@XZ ENDP			; smart<classA>::~smart<classA>
_TEXT	ENDS
; Function compile flags: /Odtp /RTCsu /ZI
; File E:\GitHub_Clone_Repository\Modern-CPP\Intermediate\1_smart_pointer.cpp
;	COMDAT ??0?$smart@VclassA@@@@QEAA@PEAVclassA@@@Z
_TEXT	SEGMENT
$T1 = 200
tv75 = 216
this$ = 256
iPtr$ = 264
??0?$smart@VclassA@@@@QEAA@PEAVclassA@@@Z PROC		; smart<classA>::smart<classA>, COMDAT

; 36   :     {

$LN6:
	mov	QWORD PTR [rsp+16], rdx
	mov	QWORD PTR [rsp+8], rcx
	push	rbp
	push	rdi
	sub	rsp, 264				; 00000108H
	lea	rbp, QWORD PTR [rsp+32]
	lea	rcx, OFFSET FLAT:__B7B93DCB_1_smart_pointer@cpp
	call	__CheckForDebuggerJustMyCode

; 35   :     explicit smart(T* iPtr = nullptr) : m_ptr(iPtr), m_count(nullptr) 

	mov	rax, QWORD PTR this$[rbp]
	mov	rcx, QWORD PTR iPtr$[rbp]
	mov	QWORD PTR [rax], rcx
	mov	rax, QWORD PTR this$[rbp]
	mov	QWORD PTR [rax+8], 0

; 37   :         if (m_ptr != nullptr)

	mov	rax, QWORD PTR this$[rbp]
	cmp	QWORD PTR [rax], 0
	je	SHORT $LN2@smart

; 38   :         {
; 39   :             m_count = new int(1);

	mov	ecx, 4
	call	??2@YAPEAX_K@Z				; operator new
	mov	QWORD PTR $T1[rbp], rax
	cmp	QWORD PTR $T1[rbp], 0
	je	SHORT $LN4@smart
	mov	rax, QWORD PTR $T1[rbp]
	mov	DWORD PTR [rax], 1
	mov	rax, QWORD PTR $T1[rbp]
	mov	QWORD PTR tv75[rbp], rax
	jmp	SHORT $LN5@smart
$LN4@smart:
	mov	QWORD PTR tv75[rbp], 0
$LN5@smart:
	mov	rax, QWORD PTR this$[rbp]
	mov	rcx, QWORD PTR tv75[rbp]
	mov	QWORD PTR [rax+8], rcx
$LN2@smart:

; 40   :         }
; 41   :     }

	mov	rax, QWORD PTR this$[rbp]
	lea	rsp, QWORD PTR [rbp+232]
	pop	rdi
	pop	rbp
	ret	0
??0?$smart@VclassA@@@@QEAA@PEAVclassA@@@Z ENDP		; smart<classA>::smart<classA>
_TEXT	ENDS
; Function compile flags: /Odtp /RTCsu /ZI
; File E:\GitHub_Clone_Repository\Modern-CPP\Intermediate\1_smart_pointer.cpp
;	COMDAT main
_TEXT	SEGMENT
pMyclass$ = 8
sp1$ = 40
sp2$ = 88
sp3$ = 136
$T6 = 376
$T7 = 408
$T8 = 440
$T9 = 472
$T10 = 500
tv189 = 520
tv167 = 520
tv147 = 520
tv131 = 520
tv84 = 520
tv75 = 520
__$ArrayPad$ = 528
main	PROC						; COMDAT

; 119  : {

$LN16:
	push	rbp
	push	rdi
	sub	rsp, 584				; 00000248H
	lea	rbp, QWORD PTR [rsp+32]
	lea	rdi, QWORD PTR [rsp+32]
	mov	ecx, 90					; 0000005aH
	mov	eax, -858993460				; ccccccccH
	rep stosd
	mov	rax, QWORD PTR __security_cookie
	xor	rax, rbp
	mov	QWORD PTR __$ArrayPad$[rbp], rax
	lea	rcx, OFFSET FLAT:__B7B93DCB_1_smart_pointer@cpp
	call	__CheckForDebuggerJustMyCode

; 120  :     classA* pMyclass = new classA();   // User has to responsibly 'delete' the object

	mov	ecx, 1
	call	??2@YAPEAX_K@Z				; operator new
	mov	QWORD PTR $T7[rbp], rax
	cmp	QWORD PTR $T7[rbp], 0
	je	SHORT $LN7@main
	mov	rcx, QWORD PTR $T7[rbp]
	call	??0classA@@QEAA@XZ			; classA::classA
	mov	QWORD PTR tv75[rbp], rax
	jmp	SHORT $LN8@main
$LN7@main:
	mov	QWORD PTR tv75[rbp], 0
$LN8@main:
	mov	rax, QWORD PTR tv75[rbp]
	mov	QWORD PTR $T6[rbp], rax
	mov	rax, QWORD PTR $T6[rbp]
	mov	QWORD PTR pMyclass$[rbp], rax

; 121  :     if (pMyclass)

	cmp	QWORD PTR pMyclass$[rbp], 0
	je	SHORT $LN2@main

; 122  :     {
; 123  :         pMyclass->func();

	mov	rcx, QWORD PTR pMyclass$[rbp]
	call	?func@classA@@QEAAXXZ			; classA::func
$LN2@main:

; 124  :     }
; 125  :     cout << "-----------------------------------------------" << endl;

	lea	rdx, OFFSET FLAT:??_C@_0DA@KNLOMJHG@?9?9?9?9?9?9?9?9?9?9?9?9?9?9?9?9?9?9?9?9?9?9?9?9?9?9?9?9?9?9?9@
	mov	rcx, QWORD PTR __imp_?cout@std@@3V?$basic_ostream@DU?$char_traits@D@std@@@1@A
	call	??$?6U?$char_traits@D@std@@@std@@YAAEAV?$basic_ostream@DU?$char_traits@D@std@@@0@AEAV10@PEBD@Z ; std::operator<<<std::char_traits<char> >
	mov	QWORD PTR tv84[rbp], rax
	lea	rdx, OFFSET FLAT:??$endl@DU?$char_traits@D@std@@@std@@YAAEAV?$basic_ostream@DU?$char_traits@D@std@@@0@AEAV10@@Z ; std::endl<char,std::char_traits<char> >
	mov	rcx, QWORD PTR tv84[rbp]
	call	QWORD PTR __imp_??6?$basic_ostream@DU?$char_traits@D@std@@@std@@QEAAAEAV01@P6AAEAV01@AEAV01@@Z@Z

; 126  : 
; 127  :     // smart<myclass> sp_myclass = new myclass; 
; 128  :     // implcit conversion not allowed as we prevent it with 'explicit'
; 129  : 
; 130  :     smart<classA> sp1(new classA);

	mov	edx, 16
	lea	rcx, QWORD PTR sp1$[rbp]
	call	?__autoclassinit2@?$smart@VclassA@@@@QEAAX_K@Z
	mov	ecx, 1
	call	??2@YAPEAX_K@Z				; operator new
	mov	QWORD PTR $T9[rbp], rax
	cmp	QWORD PTR $T9[rbp], 0
	je	SHORT $LN9@main
	mov	rcx, QWORD PTR $T9[rbp]
	call	??0classA@@QEAA@XZ			; classA::classA
	mov	QWORD PTR tv131[rbp], rax
	jmp	SHORT $LN10@main
$LN9@main:
	mov	QWORD PTR tv131[rbp], 0
$LN10@main:
	mov	rax, QWORD PTR tv131[rbp]
	mov	QWORD PTR $T8[rbp], rax
	mov	rdx, QWORD PTR $T8[rbp]
	lea	rcx, QWORD PTR sp1$[rbp]
	call	??0?$smart@VclassA@@@@QEAA@PEAVclassA@@@Z ; smart<classA>::smart<classA>
	npad	1

; 131  :     if (sp1)

	lea	rcx, QWORD PTR sp1$[rbp]
	call	??B?$smart@VclassA@@@@QEAA_NXZ		; smart<classA>::operator bool
	movzx	eax, al
	test	eax, eax
	je	SHORT $LN3@main

; 132  :     {
; 133  :         sp1->func();

	lea	rcx, QWORD PTR sp1$[rbp]
	call	??C?$smart@VclassA@@@@QEAAPEAVclassA@@XZ ; smart<classA>::operator->
	mov	rcx, rax
	call	?func@classA@@QEAAXXZ			; classA::func
$LN3@main:

; 134  :     }
; 135  :     cout << "-----------------------------------------------" << endl;

	lea	rdx, OFFSET FLAT:??_C@_0DA@KNLOMJHG@?9?9?9?9?9?9?9?9?9?9?9?9?9?9?9?9?9?9?9?9?9?9?9?9?9?9?9?9?9?9?9@
	mov	rcx, QWORD PTR __imp_?cout@std@@3V?$basic_ostream@DU?$char_traits@D@std@@@1@A
	call	??$?6U?$char_traits@D@std@@@std@@YAAEAV?$basic_ostream@DU?$char_traits@D@std@@@0@AEAV10@PEBD@Z ; std::operator<<<std::char_traits<char> >
	mov	QWORD PTR tv147[rbp], rax
	lea	rdx, OFFSET FLAT:??$endl@DU?$char_traits@D@std@@@std@@YAAEAV?$basic_ostream@DU?$char_traits@D@std@@@0@AEAV10@@Z ; std::endl<char,std::char_traits<char> >
	mov	rcx, QWORD PTR tv147[rbp]
	call	QWORD PTR __imp_??6?$basic_ostream@DU?$char_traits@D@std@@@std@@QEAAAEAV01@P6AAEAV01@AEAV01@@Z@Z

; 136  : 
; 137  :     smart<classA> sp2(sp1); // copy c'tor called

	mov	edx, 16
	lea	rcx, QWORD PTR sp2$[rbp]
	call	?__autoclassinit2@?$smart@VclassA@@@@QEAAX_K@Z
	lea	rdx, QWORD PTR sp1$[rbp]
	lea	rcx, QWORD PTR sp2$[rbp]
	call	??0?$smart@VclassA@@@@QEAA@AEBV0@@Z	; smart<classA>::smart<classA>
	npad	1

; 138  :     if (sp2)

	lea	rcx, QWORD PTR sp2$[rbp]
	call	??B?$smart@VclassA@@@@QEAA_NXZ		; smart<classA>::operator bool
	movzx	eax, al
	test	eax, eax
	je	SHORT $LN4@main

; 139  :     {
; 140  :         sp2->func();

	lea	rcx, QWORD PTR sp2$[rbp]
	call	??C?$smart@VclassA@@@@QEAAPEAVclassA@@XZ ; smart<classA>::operator->
	mov	rcx, rax
	call	?func@classA@@QEAAXXZ			; classA::func
$LN4@main:

; 141  :     }
; 142  :     cout << "-----------------------------------------------" << endl;

	lea	rdx, OFFSET FLAT:??_C@_0DA@KNLOMJHG@?9?9?9?9?9?9?9?9?9?9?9?9?9?9?9?9?9?9?9?9?9?9?9?9?9?9?9?9?9?9?9@
	mov	rcx, QWORD PTR __imp_?cout@std@@3V?$basic_ostream@DU?$char_traits@D@std@@@1@A
	call	??$?6U?$char_traits@D@std@@@std@@YAAEAV?$basic_ostream@DU?$char_traits@D@std@@@0@AEAV10@PEBD@Z ; std::operator<<<std::char_traits<char> >
	mov	QWORD PTR tv167[rbp], rax
	lea	rdx, OFFSET FLAT:??$endl@DU?$char_traits@D@std@@@std@@YAAEAV?$basic_ostream@DU?$char_traits@D@std@@@0@AEAV10@@Z ; std::endl<char,std::char_traits<char> >
	mov	rcx, QWORD PTR tv167[rbp]
	call	QWORD PTR __imp_??6?$basic_ostream@DU?$char_traits@D@std@@@std@@QEAAAEAV01@P6AAEAV01@AEAV01@@Z@Z

; 143  : 
; 144  :     smart<classA> sp3(nullptr); // copy c'tor called

	mov	edx, 16
	lea	rcx, QWORD PTR sp3$[rbp]
	call	?__autoclassinit2@?$smart@VclassA@@@@QEAAX_K@Z
	xor	edx, edx
	lea	rcx, QWORD PTR sp3$[rbp]
	call	??0?$smart@VclassA@@@@QEAA@PEAVclassA@@@Z ; smart<classA>::smart<classA>
	npad	1

; 145  :     sp3 = sp2;

	lea	rdx, QWORD PTR sp2$[rbp]
	lea	rcx, QWORD PTR sp3$[rbp]
	call	??4?$smart@VclassA@@@@QEAAAEAV0@AEBV0@@Z ; smart<classA>::operator=

; 146  :     if (sp3)

	lea	rcx, QWORD PTR sp3$[rbp]
	call	??B?$smart@VclassA@@@@QEAA_NXZ		; smart<classA>::operator bool
	movzx	eax, al
	test	eax, eax
	je	SHORT $LN5@main

; 147  :     {
; 148  :         sp3->func();

	lea	rcx, QWORD PTR sp3$[rbp]
	call	??C?$smart@VclassA@@@@QEAAPEAVclassA@@XZ ; smart<classA>::operator->
	mov	rcx, rax
	call	?func@classA@@QEAAXXZ			; classA::func
$LN5@main:

; 149  :     }
; 150  :     cout << "-----------------------------------------------" << endl;

	lea	rdx, OFFSET FLAT:??_C@_0DA@KNLOMJHG@?9?9?9?9?9?9?9?9?9?9?9?9?9?9?9?9?9?9?9?9?9?9?9?9?9?9?9?9?9?9?9@
	mov	rcx, QWORD PTR __imp_?cout@std@@3V?$basic_ostream@DU?$char_traits@D@std@@@1@A
	call	??$?6U?$char_traits@D@std@@@std@@YAAEAV?$basic_ostream@DU?$char_traits@D@std@@@0@AEAV10@PEBD@Z ; std::operator<<<std::char_traits<char> >
	mov	QWORD PTR tv189[rbp], rax
	lea	rdx, OFFSET FLAT:??$endl@DU?$char_traits@D@std@@@std@@YAAEAV?$basic_ostream@DU?$char_traits@D@std@@@0@AEAV10@@Z ; std::endl<char,std::char_traits<char> >
	mov	rcx, QWORD PTR tv189[rbp]
	call	QWORD PTR __imp_??6?$basic_ostream@DU?$char_traits@D@std@@@std@@QEAAAEAV01@P6AAEAV01@AEAV01@@Z@Z

; 151  :     return 0;

	mov	DWORD PTR $T10[rbp], 0
	lea	rcx, QWORD PTR sp3$[rbp]
	call	??1?$smart@VclassA@@@@QEAA@XZ		; smart<classA>::~smart<classA>
	npad	1
	lea	rcx, QWORD PTR sp2$[rbp]
	call	??1?$smart@VclassA@@@@QEAA@XZ		; smart<classA>::~smart<classA>
	npad	1
	lea	rcx, QWORD PTR sp1$[rbp]
	call	??1?$smart@VclassA@@@@QEAA@XZ		; smart<classA>::~smart<classA>
	mov	eax, DWORD PTR $T10[rbp]

; 152  : }

	mov	edi, eax
	lea	rcx, QWORD PTR [rbp-32]
	lea	rdx, OFFSET FLAT:main$rtcFrameData
	call	_RTC_CheckStackVars
	mov	eax, edi
	mov	rcx, QWORD PTR __$ArrayPad$[rbp]
	xor	rcx, rbp
	call	__security_check_cookie
	lea	rsp, QWORD PTR [rbp+552]
	pop	rdi
	pop	rbp
	ret	0
main	ENDP
_TEXT	ENDS
;	COMDAT text$x
text$x	SEGMENT
pMyclass$ = 8
sp1$ = 40
sp2$ = 88
sp3$ = 136
$T6 = 376
$T7 = 408
$T8 = 440
$T9 = 472
$T10 = 500
tv189 = 520
tv167 = 520
tv147 = 520
tv131 = 520
tv84 = 520
tv75 = 520
__$ArrayPad$ = 528
main$dtor$0 PROC
	mov	QWORD PTR [rsp+8], rcx
	mov	QWORD PTR [rsp+16], rdx
	push	rbp
	push	rdi
	sub	rsp, 40					; 00000028H
	lea	rbp, QWORD PTR [rdx+32]
	mov	edx, 1
	mov	rcx, QWORD PTR $T7[rbp]
	call	??3@YAXPEAX_K@Z				; operator delete
	add	rsp, 40					; 00000028H
	pop	rdi
	pop	rbp
	ret	0
main$dtor$0 ENDP
text$x	ENDS
;	COMDAT text$x
text$x	SEGMENT
pMyclass$ = 8
sp1$ = 40
sp2$ = 88
sp3$ = 136
$T6 = 376
$T7 = 408
$T8 = 440
$T9 = 472
$T10 = 500
tv189 = 520
tv167 = 520
tv147 = 520
tv131 = 520
tv84 = 520
tv75 = 520
__$ArrayPad$ = 528
main$dtor$1 PROC
	mov	QWORD PTR [rsp+8], rcx
	mov	QWORD PTR [rsp+16], rdx
	push	rbp
	push	rdi
	sub	rsp, 40					; 00000028H
	lea	rbp, QWORD PTR [rdx+32]
	mov	edx, 1
	mov	rcx, QWORD PTR $T9[rbp]
	call	??3@YAXPEAX_K@Z				; operator delete
	add	rsp, 40					; 00000028H
	pop	rdi
	pop	rbp
	ret	0
main$dtor$1 ENDP
text$x	ENDS
;	COMDAT text$x
text$x	SEGMENT
pMyclass$ = 8
sp1$ = 40
sp2$ = 88
sp3$ = 136
$T6 = 376
$T7 = 408
$T8 = 440
$T9 = 472
$T10 = 500
tv189 = 520
tv167 = 520
tv147 = 520
tv131 = 520
tv84 = 520
tv75 = 520
__$ArrayPad$ = 528
main$dtor$2 PROC
	mov	QWORD PTR [rsp+8], rcx
	mov	QWORD PTR [rsp+16], rdx
	push	rbp
	push	rdi
	sub	rsp, 40					; 00000028H
	lea	rbp, QWORD PTR [rdx+32]
	lea	rcx, QWORD PTR sp1$[rbp]
	call	??1?$smart@VclassA@@@@QEAA@XZ		; smart<classA>::~smart<classA>
	add	rsp, 40					; 00000028H
	pop	rdi
	pop	rbp
	ret	0
main$dtor$2 ENDP
text$x	ENDS
;	COMDAT text$x
text$x	SEGMENT
pMyclass$ = 8
sp1$ = 40
sp2$ = 88
sp3$ = 136
$T6 = 376
$T7 = 408
$T8 = 440
$T9 = 472
$T10 = 500
tv189 = 520
tv167 = 520
tv147 = 520
tv131 = 520
tv84 = 520
tv75 = 520
__$ArrayPad$ = 528
main$dtor$3 PROC
	mov	QWORD PTR [rsp+8], rcx
	mov	QWORD PTR [rsp+16], rdx
	push	rbp
	push	rdi
	sub	rsp, 40					; 00000028H
	lea	rbp, QWORD PTR [rdx+32]
	lea	rcx, QWORD PTR sp2$[rbp]
	call	??1?$smart@VclassA@@@@QEAA@XZ		; smart<classA>::~smart<classA>
	add	rsp, 40					; 00000028H
	pop	rdi
	pop	rbp
	ret	0
main$dtor$3 ENDP
text$x	ENDS
;	COMDAT text$x
text$x	SEGMENT
pMyclass$ = 8
sp1$ = 40
sp2$ = 88
sp3$ = 136
$T6 = 376
$T7 = 408
$T8 = 440
$T9 = 472
$T10 = 500
tv189 = 520
tv167 = 520
tv147 = 520
tv131 = 520
tv84 = 520
tv75 = 520
__$ArrayPad$ = 528
main$dtor$4 PROC
	mov	QWORD PTR [rsp+8], rcx
	mov	QWORD PTR [rsp+16], rdx
	push	rbp
	push	rdi
	sub	rsp, 40					; 00000028H
	lea	rbp, QWORD PTR [rdx+32]
	lea	rcx, QWORD PTR sp3$[rbp]
	call	??1?$smart@VclassA@@@@QEAA@XZ		; smart<classA>::~smart<classA>
	add	rsp, 40					; 00000028H
	pop	rdi
	pop	rbp
	ret	0
main$dtor$4 ENDP
text$x	ENDS
; Function compile flags: /Odtp /RTCsu /ZI
;	COMDAT text$x
text$x	SEGMENT
pMyclass$ = 8
sp1$ = 40
sp2$ = 88
sp3$ = 136
$T6 = 376
$T7 = 408
$T8 = 440
$T9 = 472
$T10 = 500
tv189 = 520
tv167 = 520
tv147 = 520
tv131 = 520
tv84 = 520
tv75 = 520
__$ArrayPad$ = 528
main$dtor$0 PROC
	mov	QWORD PTR [rsp+8], rcx
	mov	QWORD PTR [rsp+16], rdx
	push	rbp
	push	rdi
	sub	rsp, 40					; 00000028H
	lea	rbp, QWORD PTR [rdx+32]
	mov	edx, 1
	mov	rcx, QWORD PTR $T7[rbp]
	call	??3@YAXPEAX_K@Z				; operator delete
	add	rsp, 40					; 00000028H
	pop	rdi
	pop	rbp
	ret	0
main$dtor$0 ENDP
text$x	ENDS
; Function compile flags: /Odtp /RTCsu /ZI
;	COMDAT text$x
text$x	SEGMENT
pMyclass$ = 8
sp1$ = 40
sp2$ = 88
sp3$ = 136
$T6 = 376
$T7 = 408
$T8 = 440
$T9 = 472
$T10 = 500
tv189 = 520
tv167 = 520
tv147 = 520
tv131 = 520
tv84 = 520
tv75 = 520
__$ArrayPad$ = 528
main$dtor$1 PROC
	mov	QWORD PTR [rsp+8], rcx
	mov	QWORD PTR [rsp+16], rdx
	push	rbp
	push	rdi
	sub	rsp, 40					; 00000028H
	lea	rbp, QWORD PTR [rdx+32]
	mov	edx, 1
	mov	rcx, QWORD PTR $T9[rbp]
	call	??3@YAXPEAX_K@Z				; operator delete
	add	rsp, 40					; 00000028H
	pop	rdi
	pop	rbp
	ret	0
main$dtor$1 ENDP
text$x	ENDS
; Function compile flags: /Odtp /RTCsu /ZI
;	COMDAT text$x
text$x	SEGMENT
pMyclass$ = 8
sp1$ = 40
sp2$ = 88
sp3$ = 136
$T6 = 376
$T7 = 408
$T8 = 440
$T9 = 472
$T10 = 500
tv189 = 520
tv167 = 520
tv147 = 520
tv131 = 520
tv84 = 520
tv75 = 520
__$ArrayPad$ = 528
main$dtor$2 PROC
	mov	QWORD PTR [rsp+8], rcx
	mov	QWORD PTR [rsp+16], rdx
	push	rbp
	push	rdi
	sub	rsp, 40					; 00000028H
	lea	rbp, QWORD PTR [rdx+32]
	lea	rcx, QWORD PTR sp1$[rbp]
	call	??1?$smart@VclassA@@@@QEAA@XZ		; smart<classA>::~smart<classA>
	add	rsp, 40					; 00000028H
	pop	rdi
	pop	rbp
	ret	0
main$dtor$2 ENDP
text$x	ENDS
; Function compile flags: /Odtp /RTCsu /ZI
;	COMDAT text$x
text$x	SEGMENT
pMyclass$ = 8
sp1$ = 40
sp2$ = 88
sp3$ = 136
$T6 = 376
$T7 = 408
$T8 = 440
$T9 = 472
$T10 = 500
tv189 = 520
tv167 = 520
tv147 = 520
tv131 = 520
tv84 = 520
tv75 = 520
__$ArrayPad$ = 528
main$dtor$3 PROC
	mov	QWORD PTR [rsp+8], rcx
	mov	QWORD PTR [rsp+16], rdx
	push	rbp
	push	rdi
	sub	rsp, 40					; 00000028H
	lea	rbp, QWORD PTR [rdx+32]
	lea	rcx, QWORD PTR sp2$[rbp]
	call	??1?$smart@VclassA@@@@QEAA@XZ		; smart<classA>::~smart<classA>
	add	rsp, 40					; 00000028H
	pop	rdi
	pop	rbp
	ret	0
main$dtor$3 ENDP
text$x	ENDS
; Function compile flags: /Odtp /RTCsu /ZI
;	COMDAT text$x
text$x	SEGMENT
pMyclass$ = 8
sp1$ = 40
sp2$ = 88
sp3$ = 136
$T6 = 376
$T7 = 408
$T8 = 440
$T9 = 472
$T10 = 500
tv189 = 520
tv167 = 520
tv147 = 520
tv131 = 520
tv84 = 520
tv75 = 520
__$ArrayPad$ = 528
main$dtor$4 PROC
	mov	QWORD PTR [rsp+8], rcx
	mov	QWORD PTR [rsp+16], rdx
	push	rbp
	push	rdi
	sub	rsp, 40					; 00000028H
	lea	rbp, QWORD PTR [rdx+32]
	lea	rcx, QWORD PTR sp3$[rbp]
	call	??1?$smart@VclassA@@@@QEAA@XZ		; smart<classA>::~smart<classA>
	add	rsp, 40					; 00000028H
	pop	rdi
	pop	rbp
	ret	0
main$dtor$4 ENDP
text$x	ENDS
; Function compile flags: /Odtp /RTCsu /ZI
; File C:\Program Files (x86)\Microsoft Visual Studio\2019\Community\VC\Tools\MSVC\14.29.30133\include\ostream
;	COMDAT ??$endl@DU?$char_traits@D@std@@@std@@YAAEAV?$basic_ostream@DU?$char_traits@D@std@@@0@AEAV10@@Z
_TEXT	SEGMENT
tv80 = 192
_Ostr$ = 240
??$endl@DU?$char_traits@D@std@@@std@@YAAEAV?$basic_ostream@DU?$char_traits@D@std@@@0@AEAV10@@Z PROC ; std::endl<char,std::char_traits<char> >, COMDAT

; 974  :     basic_ostream<_Elem, _Traits>& _Ostr) { // insert newline and flush stream

$LN3:
	mov	QWORD PTR [rsp+8], rcx
	push	rbp
	push	rdi
	sub	rsp, 248				; 000000f8H
	lea	rbp, QWORD PTR [rsp+32]
	lea	rcx, OFFSET FLAT:__C12F3EA4_ostream
	call	__CheckForDebuggerJustMyCode

; 975  :     _Ostr.put(_Ostr.widen('\n'));

	mov	rax, QWORD PTR _Ostr$[rbp]
	mov	rax, QWORD PTR [rax]
	movsxd	rax, DWORD PTR [rax+4]
	mov	rcx, QWORD PTR _Ostr$[rbp]
	add	rcx, rax
	mov	rax, rcx
	mov	QWORD PTR tv80[rbp], rax
	mov	dl, 10
	mov	rcx, QWORD PTR tv80[rbp]
	call	QWORD PTR __imp_?widen@?$basic_ios@DU?$char_traits@D@std@@@std@@QEBADD@Z
	movzx	edx, al
	mov	rcx, QWORD PTR _Ostr$[rbp]
	call	QWORD PTR __imp_?put@?$basic_ostream@DU?$char_traits@D@std@@@std@@QEAAAEAV12@D@Z

; 976  :     _Ostr.flush();

	mov	rcx, QWORD PTR _Ostr$[rbp]
	call	QWORD PTR __imp_?flush@?$basic_ostream@DU?$char_traits@D@std@@@std@@QEAAAEAV12@XZ

; 977  :     return _Ostr;

	mov	rax, QWORD PTR _Ostr$[rbp]

; 978  : }

	lea	rsp, QWORD PTR [rbp+216]
	pop	rdi
	pop	rbp
	ret	0
??$endl@DU?$char_traits@D@std@@@std@@YAAEAV?$basic_ostream@DU?$char_traits@D@std@@@0@AEAV10@@Z ENDP ; std::endl<char,std::char_traits<char> >
_TEXT	ENDS
; Function compile flags: /Odtp /RTCsu /ZI
; File C:\Program Files (x86)\Microsoft Visual Studio\2019\Community\VC\Tools\MSVC\14.29.30133\include\ostream
;	COMDAT ??$?6U?$char_traits@D@std@@@std@@YAAEAV?$basic_ostream@DU?$char_traits@D@std@@@0@AEAV10@PEBD@Z
_TEXT	SEGMENT
_State$ = 4
_Count$ = 40
_Pad$ = 72
_Ok$ = 104
$T4 = 340
$T5 = 372
$T6 = 404
$T7 = 436
$T8 = 472
tv139 = 484
tv316 = 488
tv314 = 488
tv311 = 488
tv306 = 488
tv291 = 488
tv277 = 488
tv137 = 488
tv256 = 496
tv219 = 496
tv194 = 496
tv317 = 504
tv315 = 504
tv312 = 504
tv254 = 505
tv192 = 505
tv318 = 508
tv313 = 508
__$ArrayPad$ = 512
_Ostr$ = 560
_Val$ = 568
??$?6U?$char_traits@D@std@@@std@@YAAEAV?$basic_ostream@DU?$char_traits@D@std@@@0@AEAV10@PEBD@Z PROC ; std::operator<<<std::char_traits<char> >, COMDAT

; 731  :     const char* _Val) { // insert NTBS into char stream

$LN25:
	mov	QWORD PTR [rsp+16], rdx
	mov	QWORD PTR [rsp+8], rcx
	push	rbp
	push	rdi
	sub	rsp, 568				; 00000238H
	lea	rbp, QWORD PTR [rsp+32]
	lea	rdi, QWORD PTR [rsp+32]
	mov	ecx, 86					; 00000056H
	mov	eax, -858993460				; ccccccccH
	rep stosd
	mov	rcx, QWORD PTR [rsp+600]
	mov	rax, QWORD PTR __security_cookie
	xor	rax, rbp
	mov	QWORD PTR __$ArrayPad$[rbp], rax
	lea	rcx, OFFSET FLAT:__C12F3EA4_ostream
	call	__CheckForDebuggerJustMyCode

; 732  :     using _Elem = char;
; 733  :     using _Myos = basic_ostream<_Elem, _Traits>;
; 734  : 
; 735  :     ios_base::iostate _State = ios_base::goodbit;

	mov	DWORD PTR _State$[rbp], 0

; 736  :     streamsize _Count        = static_cast<streamsize>(_Traits::length(_Val));

	mov	rcx, QWORD PTR _Val$[rbp]
	call	?length@?$_Narrow_char_traits@DH@std@@SA_KQEBD@Z ; std::_Narrow_char_traits<char,int>::length
	mov	QWORD PTR _Count$[rbp], rax

; 737  :     streamsize _Pad          = _Ostr.width() <= 0 || _Ostr.width() <= _Count ? 0 : _Ostr.width() - _Count;

	mov	rax, QWORD PTR _Ostr$[rbp]
	mov	rax, QWORD PTR [rax]
	movsxd	rax, DWORD PTR [rax+4]
	mov	rcx, QWORD PTR _Ostr$[rbp]
	add	rcx, rax
	mov	rax, rcx
	mov	rcx, rax
	call	QWORD PTR __imp_?width@ios_base@std@@QEBA_JXZ
	test	rax, rax
	jle	SHORT $LN17@operator
	mov	rax, QWORD PTR _Ostr$[rbp]
	mov	rax, QWORD PTR [rax]
	movsxd	rax, DWORD PTR [rax+4]
	mov	rcx, QWORD PTR _Ostr$[rbp]
	add	rcx, rax
	mov	rax, rcx
	mov	rcx, rax
	call	QWORD PTR __imp_?width@ios_base@std@@QEBA_JXZ
	cmp	rax, QWORD PTR _Count$[rbp]
	jle	SHORT $LN17@operator
	mov	rax, QWORD PTR _Ostr$[rbp]
	mov	rax, QWORD PTR [rax]
	movsxd	rax, DWORD PTR [rax+4]
	mov	rcx, QWORD PTR _Ostr$[rbp]
	add	rcx, rax
	mov	rax, rcx
	mov	rcx, rax
	call	QWORD PTR __imp_?width@ios_base@std@@QEBA_JXZ
	sub	rax, QWORD PTR _Count$[rbp]
	mov	QWORD PTR tv137[rbp], rax
	jmp	SHORT $LN18@operator
$LN17@operator:
	mov	QWORD PTR tv137[rbp], 0
$LN18@operator:
	mov	rax, QWORD PTR tv137[rbp]
	mov	QWORD PTR _Pad$[rbp], rax

; 738  :     const typename _Myos::sentry _Ok(_Ostr);

	mov	rdx, QWORD PTR _Ostr$[rbp]
	lea	rcx, QWORD PTR _Ok$[rbp]
	call	??0sentry@?$basic_ostream@DU?$char_traits@D@std@@@std@@QEAA@AEAV12@@Z ; std::basic_ostream<char,std::char_traits<char> >::sentry::sentry
	npad	1

; 739  : 
; 740  :     if (!_Ok) {

	lea	rcx, QWORD PTR _Ok$[rbp]
	call	??Bsentry@?$basic_ostream@DU?$char_traits@D@std@@@std@@QEBA_NXZ ; std::basic_ostream<char,std::char_traits<char> >::sentry::operator bool
	movzx	eax, al
	test	eax, eax
	jne	SHORT $LN8@operator

; 741  :         _State |= ios_base::badbit;

	mov	eax, DWORD PTR _State$[rbp]
	or	eax, 4
	mov	DWORD PTR _State$[rbp], eax

; 742  :     } else { // state okay, insert

	jmp	$LN9@operator
$LN8@operator:

; 743  :         _TRY_IO_BEGIN
; 744  :         if ((_Ostr.flags() & ios_base::adjustfield) != ios_base::left) {

	mov	rax, QWORD PTR _Ostr$[rbp]
	mov	rax, QWORD PTR [rax]
	movsxd	rax, DWORD PTR [rax+4]
	mov	rcx, QWORD PTR _Ostr$[rbp]
	add	rcx, rax
	mov	rax, rcx
	mov	rcx, rax
	call	QWORD PTR __imp_?flags@ios_base@std@@QEBAHXZ
	mov	DWORD PTR tv139[rbp], eax
	mov	eax, DWORD PTR tv139[rbp]
	and	eax, 448				; 000001c0H
	cmp	eax, 64					; 00000040H
	je	$LN11@operator

; 745  :             for (; 0 < _Pad; --_Pad) { // pad on left

	jmp	SHORT $LN4@operator
$LN2@operator:
	mov	rax, QWORD PTR _Pad$[rbp]
	dec	rax
	mov	QWORD PTR _Pad$[rbp], rax
$LN4@operator:
	cmp	QWORD PTR _Pad$[rbp], 0
	jle	$LN11@operator

; 746  :                 if (_Traits::eq_int_type(_Traits::eof(), _Ostr.rdbuf()->sputc(_Ostr.fill()))) {

	mov	rax, QWORD PTR _Ostr$[rbp]
	mov	rax, QWORD PTR [rax]
	movsxd	rax, DWORD PTR [rax+4]
	mov	rcx, QWORD PTR _Ostr$[rbp]
	add	rcx, rax
	mov	rax, rcx
	mov	rcx, rax
	call	QWORD PTR __imp_?rdbuf@?$basic_ios@DU?$char_traits@D@std@@@std@@QEBAPEAV?$basic_streambuf@DU?$char_traits@D@std@@@2@XZ
	mov	QWORD PTR tv311[rbp], rax
	mov	rax, QWORD PTR tv311[rbp]
	mov	QWORD PTR tv194[rbp], rax
	mov	rax, QWORD PTR _Ostr$[rbp]
	mov	rax, QWORD PTR [rax]
	movsxd	rax, DWORD PTR [rax+4]
	mov	rcx, QWORD PTR _Ostr$[rbp]
	add	rcx, rax
	mov	rax, rcx
	mov	rcx, rax
	call	QWORD PTR __imp_?fill@?$basic_ios@DU?$char_traits@D@std@@@std@@QEBADXZ
	mov	BYTE PTR tv312[rbp], al
	movzx	eax, BYTE PTR tv312[rbp]
	mov	BYTE PTR tv192[rbp], al
	movzx	edx, BYTE PTR tv192[rbp]
	mov	rcx, QWORD PTR tv194[rbp]
	call	QWORD PTR __imp_?sputc@?$basic_streambuf@DU?$char_traits@D@std@@@std@@QEAAHD@Z
	mov	DWORD PTR tv313[rbp], eax
	mov	eax, DWORD PTR tv313[rbp]
	mov	DWORD PTR $T4[rbp], eax
	call	?eof@?$_Narrow_char_traits@DH@std@@SAHXZ ; std::_Narrow_char_traits<char,int>::eof
	mov	DWORD PTR $T5[rbp], eax
	lea	rdx, QWORD PTR $T4[rbp]
	lea	rcx, QWORD PTR $T5[rbp]
	call	?eq_int_type@?$_Narrow_char_traits@DH@std@@SA_NAEBH0@Z ; std::_Narrow_char_traits<char,int>::eq_int_type
	movzx	eax, al
	test	eax, eax
	je	SHORT $LN12@operator

; 747  :                     _State |= ios_base::badbit; // insertion failed, quit

	mov	eax, DWORD PTR _State$[rbp]
	or	eax, 4
	mov	DWORD PTR _State$[rbp], eax

; 748  :                     break;

	jmp	SHORT $LN11@operator
$LN12@operator:

; 749  :                 }
; 750  :             }

	jmp	$LN2@operator
$LN11@operator:

; 751  :         }
; 752  : 
; 753  :         if (_State == ios_base::goodbit && _Ostr.rdbuf()->sputn(_Val, _Count) != _Count) {

	cmp	DWORD PTR _State$[rbp], 0
	jne	SHORT $LN13@operator
	mov	rax, QWORD PTR _Ostr$[rbp]
	mov	rax, QWORD PTR [rax]
	movsxd	rax, DWORD PTR [rax+4]
	mov	rcx, QWORD PTR _Ostr$[rbp]
	add	rcx, rax
	mov	rax, rcx
	mov	rcx, rax
	call	QWORD PTR __imp_?rdbuf@?$basic_ios@DU?$char_traits@D@std@@@std@@QEBAPEAV?$basic_streambuf@DU?$char_traits@D@std@@@2@XZ
	mov	QWORD PTR tv314[rbp], rax
	mov	rax, QWORD PTR tv314[rbp]
	mov	QWORD PTR tv219[rbp], rax
	mov	r8, QWORD PTR _Count$[rbp]
	mov	rdx, QWORD PTR _Val$[rbp]
	mov	rcx, QWORD PTR tv219[rbp]
	call	QWORD PTR __imp_?sputn@?$basic_streambuf@DU?$char_traits@D@std@@@std@@QEAA_JPEBD_J@Z
	mov	QWORD PTR tv315[rbp], rax
	mov	rax, QWORD PTR _Count$[rbp]
	cmp	QWORD PTR tv315[rbp], rax
	je	SHORT $LN13@operator

; 754  :             _State |= ios_base::badbit;

	mov	eax, DWORD PTR _State$[rbp]
	or	eax, 4
	mov	DWORD PTR _State$[rbp], eax
$LN13@operator:

; 755  :         }
; 756  : 
; 757  :         if (_State == ios_base::goodbit) {

	cmp	DWORD PTR _State$[rbp], 0
	jne	$LN14@operator

; 758  :             for (; 0 < _Pad; --_Pad) { // pad on right

	jmp	SHORT $LN7@operator
$LN5@operator:
	mov	rax, QWORD PTR _Pad$[rbp]
	dec	rax
	mov	QWORD PTR _Pad$[rbp], rax
$LN7@operator:
	cmp	QWORD PTR _Pad$[rbp], 0
	jle	$LN14@operator

; 759  :                 if (_Traits::eq_int_type(_Traits::eof(), _Ostr.rdbuf()->sputc(_Ostr.fill()))) {

	mov	rax, QWORD PTR _Ostr$[rbp]
	mov	rax, QWORD PTR [rax]
	movsxd	rax, DWORD PTR [rax+4]
	mov	rcx, QWORD PTR _Ostr$[rbp]
	add	rcx, rax
	mov	rax, rcx
	mov	rcx, rax
	call	QWORD PTR __imp_?rdbuf@?$basic_ios@DU?$char_traits@D@std@@@std@@QEBAPEAV?$basic_streambuf@DU?$char_traits@D@std@@@2@XZ
	mov	QWORD PTR tv316[rbp], rax
	mov	rax, QWORD PTR tv316[rbp]
	mov	QWORD PTR tv256[rbp], rax
	mov	rax, QWORD PTR _Ostr$[rbp]
	mov	rax, QWORD PTR [rax]
	movsxd	rax, DWORD PTR [rax+4]
	mov	rcx, QWORD PTR _Ostr$[rbp]
	add	rcx, rax
	mov	rax, rcx
	mov	rcx, rax
	call	QWORD PTR __imp_?fill@?$basic_ios@DU?$char_traits@D@std@@@std@@QEBADXZ
	mov	BYTE PTR tv317[rbp], al
	movzx	eax, BYTE PTR tv317[rbp]
	mov	BYTE PTR tv254[rbp], al
	movzx	edx, BYTE PTR tv254[rbp]
	mov	rcx, QWORD PTR tv256[rbp]
	call	QWORD PTR __imp_?sputc@?$basic_streambuf@DU?$char_traits@D@std@@@std@@QEAAHD@Z
	mov	DWORD PTR tv318[rbp], eax
	mov	eax, DWORD PTR tv318[rbp]
	mov	DWORD PTR $T6[rbp], eax
	call	?eof@?$_Narrow_char_traits@DH@std@@SAHXZ ; std::_Narrow_char_traits<char,int>::eof
	mov	DWORD PTR $T7[rbp], eax
	lea	rdx, QWORD PTR $T6[rbp]
	lea	rcx, QWORD PTR $T7[rbp]
	call	?eq_int_type@?$_Narrow_char_traits@DH@std@@SA_NAEBH0@Z ; std::_Narrow_char_traits<char,int>::eq_int_type
	movzx	eax, al
	test	eax, eax
	je	SHORT $LN15@operator

; 760  :                     _State |= ios_base::badbit; // insertion failed, quit

	mov	eax, DWORD PTR _State$[rbp]
	or	eax, 4
	mov	DWORD PTR _State$[rbp], eax

; 761  :                     break;

	jmp	SHORT $LN14@operator
$LN15@operator:

; 762  :                 }
; 763  :             }

	jmp	$LN5@operator
$LN14@operator:

; 764  :         }
; 765  : 
; 766  :         _Ostr.width(0);

	mov	rax, QWORD PTR _Ostr$[rbp]
	mov	rax, QWORD PTR [rax]
	movsxd	rax, DWORD PTR [rax+4]
	mov	rcx, QWORD PTR _Ostr$[rbp]
	add	rcx, rax
	mov	rax, rcx
	mov	QWORD PTR tv277[rbp], rax
	xor	edx, edx
	mov	rcx, QWORD PTR tv277[rbp]
	call	QWORD PTR __imp_?width@ios_base@std@@QEAA_J_J@Z
	npad	1
	jmp	SHORT $LN9@operator
$LN23@operator:
$LN9@operator:

; 767  :         _CATCH_IO_(ios_base, _Ostr)
; 768  :     }
; 769  : 
; 770  :     _Ostr.setstate(_State);

	mov	rax, QWORD PTR _Ostr$[rbp]
	mov	rax, QWORD PTR [rax]
	movsxd	rax, DWORD PTR [rax+4]
	mov	rcx, QWORD PTR _Ostr$[rbp]
	add	rcx, rax
	mov	rax, rcx
	mov	QWORD PTR tv306[rbp], rax
	xor	r8d, r8d
	mov	edx, DWORD PTR _State$[rbp]
	mov	rcx, QWORD PTR tv306[rbp]
	call	QWORD PTR __imp_?setstate@?$basic_ios@DU?$char_traits@D@std@@@std@@QEAAXH_N@Z

; 771  :     return _Ostr;

	mov	rax, QWORD PTR _Ostr$[rbp]
	mov	QWORD PTR $T8[rbp], rax
	lea	rcx, QWORD PTR _Ok$[rbp]
	call	??1sentry@?$basic_ostream@DU?$char_traits@D@std@@@std@@QEAA@XZ ; std::basic_ostream<char,std::char_traits<char> >::sentry::~sentry
	mov	rax, QWORD PTR $T8[rbp]

; 772  : }

	mov	rdi, rax
	lea	rcx, QWORD PTR [rbp-32]
	lea	rdx, OFFSET FLAT:??$?6U?$char_traits@D@std@@@std@@YAAEAV?$basic_ostream@DU?$char_traits@D@std@@@0@AEAV10@PEBD@Z$rtcFrameData
	call	_RTC_CheckStackVars
	mov	rax, rdi
	mov	rcx, QWORD PTR __$ArrayPad$[rbp]
	xor	rcx, rbp
	call	__security_check_cookie
	lea	rsp, QWORD PTR [rbp+536]
	pop	rdi
	pop	rbp
	ret	0
??$?6U?$char_traits@D@std@@@std@@YAAEAV?$basic_ostream@DU?$char_traits@D@std@@@0@AEAV10@PEBD@Z ENDP ; std::operator<<<std::char_traits<char> >
_TEXT	ENDS
;	COMDAT text$x
text$x	SEGMENT
_State$ = 4
_Count$ = 40
_Pad$ = 72
_Ok$ = 104
$T4 = 340
$T5 = 372
$T6 = 404
$T7 = 436
$T8 = 472
tv139 = 484
tv316 = 488
tv314 = 488
tv311 = 488
tv306 = 488
tv291 = 488
tv277 = 488
tv137 = 488
tv256 = 496
tv219 = 496
tv194 = 496
tv317 = 504
tv315 = 504
tv312 = 504
tv254 = 505
tv192 = 505
tv318 = 508
tv313 = 508
__$ArrayPad$ = 512
_Ostr$ = 560
_Val$ = 568
?dtor$0@?0???$?6U?$char_traits@D@std@@@std@@YAAEAV?$basic_ostream@DU?$char_traits@D@std@@@0@AEAV10@PEBD@Z@4HA PROC ; `std::operator<<<std::char_traits<char> >'::`1'::dtor$0
	mov	QWORD PTR [rsp+8], rcx
	mov	QWORD PTR [rsp+16], rdx
	push	rbp
	push	rdi
	sub	rsp, 40					; 00000028H
	lea	rbp, QWORD PTR [rdx+32]
	lea	rcx, QWORD PTR _Ok$[rbp]
	call	??1sentry@?$basic_ostream@DU?$char_traits@D@std@@@std@@QEAA@XZ ; std::basic_ostream<char,std::char_traits<char> >::sentry::~sentry
	add	rsp, 40					; 00000028H
	pop	rdi
	pop	rbp
	ret	0
?dtor$0@?0???$?6U?$char_traits@D@std@@@std@@YAAEAV?$basic_ostream@DU?$char_traits@D@std@@@0@AEAV10@PEBD@Z@4HA ENDP ; `std::operator<<<std::char_traits<char> >'::`1'::dtor$0
text$x	ENDS
;	COMDAT text$x
text$x	SEGMENT
_State$ = 4
_Count$ = 40
_Pad$ = 72
_Ok$ = 104
$T4 = 340
$T5 = 372
$T6 = 404
$T7 = 436
$T8 = 472
tv139 = 484
tv316 = 488
tv314 = 488
tv311 = 488
tv306 = 488
tv291 = 488
tv277 = 488
tv137 = 488
tv256 = 496
tv219 = 496
tv194 = 496
tv317 = 504
tv315 = 504
tv312 = 504
tv254 = 505
tv192 = 505
tv318 = 508
tv313 = 508
__$ArrayPad$ = 512
_Ostr$ = 560
_Val$ = 568
?catch$1@?0???$?6U?$char_traits@D@std@@@std@@YAAEAV?$basic_ostream@DU?$char_traits@D@std@@@0@AEAV10@PEBD@Z@4HA PROC ; `std::operator<<<std::char_traits<char> >'::`1'::catch$1

; 767  :         _CATCH_IO_(ios_base, _Ostr)

	mov	QWORD PTR [rsp+8], rcx
	mov	QWORD PTR [rsp+16], rdx
	push	rbp
	push	rdi
	sub	rsp, 40					; 00000028H
	lea	rbp, QWORD PTR [rdx+32]
__catch$??$?6U?$char_traits@D@std@@@std@@YAAEAV?$basic_ostream@DU?$char_traits@D@std@@@0@AEAV10@PEBD@Z$0:
	mov	rax, QWORD PTR _Ostr$[rbp]
	mov	rax, QWORD PTR [rax]
	movsxd	rax, DWORD PTR [rax+4]
	mov	rcx, QWORD PTR _Ostr$[rbp]
	add	rcx, rax
	mov	rax, rcx
	mov	QWORD PTR tv291[rbp], rax
	mov	r8b, 1
	mov	edx, 4
	mov	rcx, QWORD PTR tv291[rbp]
	call	QWORD PTR __imp_?setstate@?$basic_ios@DU?$char_traits@D@std@@@std@@QEAAXH_N@Z
	npad	1
	lea	rax, $LN23@catch$1
	add	rsp, 40					; 00000028H
	pop	rdi
	pop	rbp
	ret	0
	int	3
?catch$1@?0???$?6U?$char_traits@D@std@@@std@@YAAEAV?$basic_ostream@DU?$char_traits@D@std@@@0@AEAV10@PEBD@Z@4HA ENDP ; `std::operator<<<std::char_traits<char> >'::`1'::catch$1
text$x	ENDS
; Function compile flags: /Odtp /RTCsu /ZI
;	COMDAT text$x
text$x	SEGMENT
_State$ = 4
_Count$ = 40
_Pad$ = 72
_Ok$ = 104
$T4 = 340
$T5 = 372
$T6 = 404
$T7 = 436
$T8 = 472
tv139 = 484
tv316 = 488
tv314 = 488
tv311 = 488
tv306 = 488
tv291 = 488
tv277 = 488
tv137 = 488
tv256 = 496
tv219 = 496
tv194 = 496
tv317 = 504
tv315 = 504
tv312 = 504
tv254 = 505
tv192 = 505
tv318 = 508
tv313 = 508
__$ArrayPad$ = 512
_Ostr$ = 560
_Val$ = 568
?dtor$0@?0???$?6U?$char_traits@D@std@@@std@@YAAEAV?$basic_ostream@DU?$char_traits@D@std@@@0@AEAV10@PEBD@Z@4HA PROC ; `std::operator<<<std::char_traits<char> >'::`1'::dtor$0
	mov	QWORD PTR [rsp+8], rcx
	mov	QWORD PTR [rsp+16], rdx
	push	rbp
	push	rdi
	sub	rsp, 40					; 00000028H
	lea	rbp, QWORD PTR [rdx+32]
	lea	rcx, QWORD PTR _Ok$[rbp]
	call	??1sentry@?$basic_ostream@DU?$char_traits@D@std@@@std@@QEAA@XZ ; std::basic_ostream<char,std::char_traits<char> >::sentry::~sentry
	add	rsp, 40					; 00000028H
	pop	rdi
	pop	rbp
	ret	0
?dtor$0@?0???$?6U?$char_traits@D@std@@@std@@YAAEAV?$basic_ostream@DU?$char_traits@D@std@@@0@AEAV10@PEBD@Z@4HA ENDP ; `std::operator<<<std::char_traits<char> >'::`1'::dtor$0
text$x	ENDS
; Function compile flags: /Odtp /RTCsu /ZI
;	COMDAT text$x
text$x	SEGMENT
_State$ = 4
_Count$ = 40
_Pad$ = 72
_Ok$ = 104
$T4 = 340
$T5 = 372
$T6 = 404
$T7 = 436
$T8 = 472
tv139 = 484
tv316 = 488
tv314 = 488
tv311 = 488
tv306 = 488
tv291 = 488
tv277 = 488
tv137 = 488
tv256 = 496
tv219 = 496
tv194 = 496
tv317 = 504
tv315 = 504
tv312 = 504
tv254 = 505
tv192 = 505
tv318 = 508
tv313 = 508
__$ArrayPad$ = 512
_Ostr$ = 560
_Val$ = 568
?catch$1@?0???$?6U?$char_traits@D@std@@@std@@YAAEAV?$basic_ostream@DU?$char_traits@D@std@@@0@AEAV10@PEBD@Z@4HA PROC ; `std::operator<<<std::char_traits<char> >'::`1'::catch$1

; 767  :         _CATCH_IO_(ios_base, _Ostr)

	mov	QWORD PTR [rsp+8], rcx
	mov	QWORD PTR [rsp+16], rdx
	push	rbp
	push	rdi
	sub	rsp, 40					; 00000028H
	lea	rbp, QWORD PTR [rdx+32]
__catch$??$?6U?$char_traits@D@std@@@std@@YAAEAV?$basic_ostream@DU?$char_traits@D@std@@@0@AEAV10@PEBD@Z$0:
	mov	rax, QWORD PTR _Ostr$[rbp]
	mov	rax, QWORD PTR [rax]
	movsxd	rax, DWORD PTR [rax+4]
	mov	rcx, QWORD PTR _Ostr$[rbp]
	add	rcx, rax
	mov	rax, rcx
	mov	QWORD PTR tv291[rbp], rax
	mov	r8b, 1
	mov	edx, 4
	mov	rcx, QWORD PTR tv291[rbp]
	call	QWORD PTR __imp_?setstate@?$basic_ios@DU?$char_traits@D@std@@@std@@QEAAXH_N@Z
	npad	1
	lea	rax, $LN23@catch$1
	add	rsp, 40					; 00000028H
	pop	rdi
	pop	rbp
	ret	0
	int	3
?catch$1@?0???$?6U?$char_traits@D@std@@@std@@YAAEAV?$basic_ostream@DU?$char_traits@D@std@@@0@AEAV10@PEBD@Z@4HA ENDP ; `std::operator<<<std::char_traits<char> >'::`1'::catch$1
text$x	ENDS
; Function compile flags: /Odtp /RTCsu /ZI
;	COMDAT ??_GclassA@@QEAAPEAXI@Z
_TEXT	SEGMENT
this$ = 224
__flags$ = 232
??_GclassA@@QEAAPEAXI@Z PROC				; classA::`scalar deleting destructor', COMDAT
$LN4:
	mov	DWORD PTR [rsp+16], edx
	mov	QWORD PTR [rsp+8], rcx
	push	rbp
	push	rdi
	sub	rsp, 232				; 000000e8H
	lea	rbp, QWORD PTR [rsp+32]
	mov	rcx, QWORD PTR this$[rbp]
	call	??1classA@@QEAA@XZ			; classA::~classA
	mov	eax, DWORD PTR __flags$[rbp]
	and	eax, 1
	test	eax, eax
	je	SHORT $LN2@scalar
	mov	edx, 1
	mov	rcx, QWORD PTR this$[rbp]
	call	??3@YAXPEAX_K@Z				; operator delete
$LN2@scalar:
	mov	rax, QWORD PTR this$[rbp]
	lea	rsp, QWORD PTR [rbp+200]
	pop	rdi
	pop	rbp
	ret	0
??_GclassA@@QEAAPEAXI@Z ENDP				; classA::`scalar deleting destructor'
_TEXT	ENDS
; Function compile flags: /Odtp /RTCsu /ZI
; File E:\GitHub_Clone_Repository\Modern-CPP\Intermediate\1_smart_pointer.cpp
;	COMDAT ?func@classA@@QEAAXXZ
_TEXT	SEGMENT
tv71 = 192
this$ = 240
?func@classA@@QEAAXXZ PROC				; classA::func, COMDAT

; 15   :     void func() {

$LN3:
	mov	QWORD PTR [rsp+8], rcx
	push	rbp
	push	rdi
	sub	rsp, 248				; 000000f8H
	lea	rbp, QWORD PTR [rsp+32]
	lea	rcx, OFFSET FLAT:__B7B93DCB_1_smart_pointer@cpp
	call	__CheckForDebuggerJustMyCode

; 16   :         cout << "classA::func()" << endl;

	lea	rdx, OFFSET FLAT:??_C@_0P@CKFMDMBD@classA?3?3func?$CI?$CJ@
	mov	rcx, QWORD PTR __imp_?cout@std@@3V?$basic_ostream@DU?$char_traits@D@std@@@1@A
	call	??$?6U?$char_traits@D@std@@@std@@YAAEAV?$basic_ostream@DU?$char_traits@D@std@@@0@AEAV10@PEBD@Z ; std::operator<<<std::char_traits<char> >
	mov	QWORD PTR tv71[rbp], rax
	lea	rdx, OFFSET FLAT:??$endl@DU?$char_traits@D@std@@@std@@YAAEAV?$basic_ostream@DU?$char_traits@D@std@@@0@AEAV10@@Z ; std::endl<char,std::char_traits<char> >
	mov	rcx, QWORD PTR tv71[rbp]
	call	QWORD PTR __imp_??6?$basic_ostream@DU?$char_traits@D@std@@@std@@QEAAAEAV01@P6AAEAV01@AEAV01@@Z@Z

; 17   :     }

	lea	rsp, QWORD PTR [rbp+216]
	pop	rdi
	pop	rbp
	ret	0
?func@classA@@QEAAXXZ ENDP				; classA::func
_TEXT	ENDS
; Function compile flags: /Odtp /RTCsu /ZI
; File E:\GitHub_Clone_Repository\Modern-CPP\Intermediate\1_smart_pointer.cpp
;	COMDAT ??1classA@@QEAA@XZ
_TEXT	SEGMENT
tv71 = 192
this$ = 240
??1classA@@QEAA@XZ PROC					; classA::~classA, COMDAT

; 11   :     ~classA() {

$LN3:
	mov	QWORD PTR [rsp+8], rcx
	push	rbp
	push	rdi
	sub	rsp, 248				; 000000f8H
	lea	rbp, QWORD PTR [rsp+32]
	lea	rcx, OFFSET FLAT:__B7B93DCB_1_smart_pointer@cpp
	call	__CheckForDebuggerJustMyCode

; 12   :         cout << "classA D'tor called" << endl;

	lea	rdx, OFFSET FLAT:??_C@_0BE@MPFPKGMF@classA?5D?8tor?5called@
	mov	rcx, QWORD PTR __imp_?cout@std@@3V?$basic_ostream@DU?$char_traits@D@std@@@1@A
	call	??$?6U?$char_traits@D@std@@@std@@YAAEAV?$basic_ostream@DU?$char_traits@D@std@@@0@AEAV10@PEBD@Z ; std::operator<<<std::char_traits<char> >
	mov	QWORD PTR tv71[rbp], rax
	lea	rdx, OFFSET FLAT:??$endl@DU?$char_traits@D@std@@@std@@YAAEAV?$basic_ostream@DU?$char_traits@D@std@@@0@AEAV10@@Z ; std::endl<char,std::char_traits<char> >
	mov	rcx, QWORD PTR tv71[rbp]
	call	QWORD PTR __imp_??6?$basic_ostream@DU?$char_traits@D@std@@@std@@QEAAAEAV01@P6AAEAV01@AEAV01@@Z@Z
	npad	1

; 13   :     }

	lea	rsp, QWORD PTR [rbp+216]
	pop	rdi
	pop	rbp
	ret	0
??1classA@@QEAA@XZ ENDP					; classA::~classA
_TEXT	ENDS
; Function compile flags: /Odtp /RTCsu /ZI
; File E:\GitHub_Clone_Repository\Modern-CPP\Intermediate\1_smart_pointer.cpp
;	COMDAT ??0classA@@QEAA@XZ
_TEXT	SEGMENT
tv71 = 192
this$ = 240
??0classA@@QEAA@XZ PROC					; classA::classA, COMDAT

; 7    :     classA() {

$LN3:
	mov	QWORD PTR [rsp+8], rcx
	push	rbp
	push	rdi
	sub	rsp, 248				; 000000f8H
	lea	rbp, QWORD PTR [rsp+32]
	lea	rcx, OFFSET FLAT:__B7B93DCB_1_smart_pointer@cpp
	call	__CheckForDebuggerJustMyCode

; 8    :         cout << "classA C'tor called" << endl;

	lea	rdx, OFFSET FLAT:??_C@_0BE@LCCMKAJN@classA?5C?8tor?5called@
	mov	rcx, QWORD PTR __imp_?cout@std@@3V?$basic_ostream@DU?$char_traits@D@std@@@1@A
	call	??$?6U?$char_traits@D@std@@@std@@YAAEAV?$basic_ostream@DU?$char_traits@D@std@@@0@AEAV10@PEBD@Z ; std::operator<<<std::char_traits<char> >
	mov	QWORD PTR tv71[rbp], rax
	lea	rdx, OFFSET FLAT:??$endl@DU?$char_traits@D@std@@@std@@YAAEAV?$basic_ostream@DU?$char_traits@D@std@@@0@AEAV10@@Z ; std::endl<char,std::char_traits<char> >
	mov	rcx, QWORD PTR tv71[rbp]
	call	QWORD PTR __imp_??6?$basic_ostream@DU?$char_traits@D@std@@@std@@QEAAAEAV01@P6AAEAV01@AEAV01@@Z@Z

; 9    :     }

	mov	rax, QWORD PTR this$[rbp]
	lea	rsp, QWORD PTR [rbp+216]
	pop	rdi
	pop	rbp
	ret	0
??0classA@@QEAA@XZ ENDP					; classA::classA
_TEXT	ENDS
; Function compile flags: /Odtp /RTCsu /ZI
; File C:\Program Files (x86)\Microsoft Visual Studio\2019\Community\VC\Tools\MSVC\14.29.30133\include\xstring
;	COMDAT ?eof@?$_Narrow_char_traits@DH@std@@SAHXZ
_TEXT	SEGMENT
?eof@?$_Narrow_char_traits@DH@std@@SAHXZ PROC		; std::_Narrow_char_traits<char,int>::eof, COMDAT

; 469  :     _NODISCARD static constexpr int_type eof() noexcept {

$LN3:
	push	rbp
	push	rdi
	sub	rsp, 232				; 000000e8H
	lea	rbp, QWORD PTR [rsp+32]
	lea	rcx, OFFSET FLAT:__0D019051_xstring
	call	__CheckForDebuggerJustMyCode

; 470  :         return static_cast<int_type>(EOF);

	mov	eax, -1

; 471  :     }

	lea	rsp, QWORD PTR [rbp+200]
	pop	rdi
	pop	rbp
	ret	0
?eof@?$_Narrow_char_traits@DH@std@@SAHXZ ENDP		; std::_Narrow_char_traits<char,int>::eof
_TEXT	ENDS
; Function compile flags: /Odtp /RTCsu /ZI
; File C:\Program Files (x86)\Microsoft Visual Studio\2019\Community\VC\Tools\MSVC\14.29.30133\include\xstring
;	COMDAT ?eq_int_type@?$_Narrow_char_traits@DH@std@@SA_NAEBH0@Z
_TEXT	SEGMENT
tv65 = 192
_Left$ = 240
_Right$ = 248
?eq_int_type@?$_Narrow_char_traits@DH@std@@SA_NAEBH0@Z PROC ; std::_Narrow_char_traits<char,int>::eq_int_type, COMDAT

; 461  :     _NODISCARD static constexpr bool eq_int_type(const int_type& _Left, const int_type& _Right) noexcept {

$LN5:
	mov	QWORD PTR [rsp+16], rdx
	mov	QWORD PTR [rsp+8], rcx
	push	rbp
	push	rdi
	sub	rsp, 248				; 000000f8H
	lea	rbp, QWORD PTR [rsp+32]
	lea	rcx, OFFSET FLAT:__0D019051_xstring
	call	__CheckForDebuggerJustMyCode

; 462  :         return _Left == _Right;

	mov	rax, QWORD PTR _Left$[rbp]
	mov	rcx, QWORD PTR _Right$[rbp]
	mov	ecx, DWORD PTR [rcx]
	cmp	DWORD PTR [rax], ecx
	jne	SHORT $LN3@eq_int_typ
	mov	DWORD PTR tv65[rbp], 1
	jmp	SHORT $LN4@eq_int_typ
$LN3@eq_int_typ:
	mov	DWORD PTR tv65[rbp], 0
$LN4@eq_int_typ:
	movzx	eax, BYTE PTR tv65[rbp]

; 463  :     }

	lea	rsp, QWORD PTR [rbp+216]
	pop	rdi
	pop	rbp
	ret	0
?eq_int_type@?$_Narrow_char_traits@DH@std@@SA_NAEBH0@Z ENDP ; std::_Narrow_char_traits<char,int>::eq_int_type
_TEXT	ENDS
; Function compile flags: /Odtp /RTCsu /ZI
; File C:\Program Files (x86)\Microsoft Visual Studio\2019\Community\VC\Tools\MSVC\14.29.30133\include\xstring
;	COMDAT ?length@?$_Narrow_char_traits@DH@std@@SA_KQEBD@Z
_TEXT	SEGMENT
tv68 = 192
tv69 = 200
_First$ = 240
?length@?$_Narrow_char_traits@DH@std@@SA_KQEBD@Z PROC	; std::_Narrow_char_traits<char,int>::length, COMDAT

; 388  :     _NODISCARD static _CONSTEXPR17 size_t length(_In_z_ const _Elem* const _First) noexcept /* strengthened */ {

$LN4:
	mov	QWORD PTR [rsp+8], rcx
	push	rbp
	push	rdi
	sub	rsp, 248				; 000000f8H
	lea	rbp, QWORD PTR [rsp+32]
	lea	rcx, OFFSET FLAT:__0D019051_xstring
	call	__CheckForDebuggerJustMyCode

; 389  :         // find length of null-terminated string
; 390  : #if _HAS_CXX17
; 391  : #ifdef __cpp_char8_t
; 392  :         if constexpr (is_same_v<_Elem, char8_t>) {
; 393  : #if _HAS_U8_INTRINSICS
; 394  :             return __builtin_u8strlen(_First);
; 395  : #else // ^^^ use u8 intrinsics / no u8 intrinsics vvv
; 396  :             return _Primary_char_traits::length(_First);
; 397  : #endif // _HAS_U8_INTRINSICS
; 398  :         } else
; 399  : #endif // __cpp_char8_t
; 400  :         {
; 401  :             return __builtin_strlen(_First);

	mov	rax, QWORD PTR _First$[rbp]
	mov	QWORD PTR tv68[rbp], rax
	mov	QWORD PTR tv69[rbp], -1
$LL3@length:
	inc	QWORD PTR tv69[rbp]
	mov	rax, QWORD PTR tv68[rbp]
	mov	rcx, QWORD PTR tv69[rbp]
	cmp	BYTE PTR [rax+rcx], 0
	jne	SHORT $LL3@length
	mov	rax, QWORD PTR tv69[rbp]

; 402  :         }
; 403  : #else // _HAS_CXX17
; 404  :         return _CSTD strlen(reinterpret_cast<const char*>(_First));
; 405  : #endif // _HAS_CXX17
; 406  :     }

	lea	rsp, QWORD PTR [rbp+216]
	pop	rdi
	pop	rbp
	ret	0
?length@?$_Narrow_char_traits@DH@std@@SA_KQEBD@Z ENDP	; std::_Narrow_char_traits<char,int>::length
_TEXT	ENDS
; Function compile flags: /Odtp /RTCsu /ZI
; File E:\GitHub_Clone_Repository\Modern-CPP\Intermediate\1_smart_pointer.cpp
;	COMDAT ?__empty_global_delete@@YAXPEAX_KW4align_val_t@std@@@Z
_TEXT	SEGMENT
__formal$ = 224
__formal$ = 232
__formal$ = 240
?__empty_global_delete@@YAXPEAX_KW4align_val_t@std@@@Z PROC ; __empty_global_delete, COMDAT

$LN3:
	mov	QWORD PTR [rsp+24], r8
	mov	QWORD PTR [rsp+16], rdx
	mov	QWORD PTR [rsp+8], rcx
	push	rbp
	push	rdi
	sub	rsp, 232				; 000000e8H
	lea	rbp, QWORD PTR [rsp+32]
	lea	rcx, OFFSET FLAT:__B7B93DCB_1_smart_pointer@cpp
	call	__CheckForDebuggerJustMyCode
	lea	rsp, QWORD PTR [rbp+200]
	pop	rdi
	pop	rbp
	ret	0
?__empty_global_delete@@YAXPEAX_KW4align_val_t@std@@@Z ENDP ; __empty_global_delete
_TEXT	ENDS
; Function compile flags: /Odtp /RTCsu /ZI
; File E:\GitHub_Clone_Repository\Modern-CPP\Intermediate\1_smart_pointer.cpp
;	COMDAT ?__empty_global_delete@@YAXPEAXW4align_val_t@std@@@Z
_TEXT	SEGMENT
__formal$ = 224
__formal$ = 232
?__empty_global_delete@@YAXPEAXW4align_val_t@std@@@Z PROC ; __empty_global_delete, COMDAT

$LN3:
	mov	QWORD PTR [rsp+16], rdx
	mov	QWORD PTR [rsp+8], rcx
	push	rbp
	push	rdi
	sub	rsp, 232				; 000000e8H
	lea	rbp, QWORD PTR [rsp+32]
	lea	rcx, OFFSET FLAT:__B7B93DCB_1_smart_pointer@cpp
	call	__CheckForDebuggerJustMyCode
	lea	rsp, QWORD PTR [rbp+200]
	pop	rdi
	pop	rbp
	ret	0
?__empty_global_delete@@YAXPEAXW4align_val_t@std@@@Z ENDP ; __empty_global_delete
_TEXT	ENDS
; Function compile flags: /Odtp /RTCsu /ZI
; File E:\GitHub_Clone_Repository\Modern-CPP\Intermediate\1_smart_pointer.cpp
;	COMDAT ?__empty_global_delete@@YAXPEAX_K@Z
_TEXT	SEGMENT
__formal$ = 224
__formal$ = 232
?__empty_global_delete@@YAXPEAX_K@Z PROC		; __empty_global_delete, COMDAT

$LN3:
	mov	QWORD PTR [rsp+16], rdx
	mov	QWORD PTR [rsp+8], rcx
	push	rbp
	push	rdi
	sub	rsp, 232				; 000000e8H
	lea	rbp, QWORD PTR [rsp+32]
	lea	rcx, OFFSET FLAT:__B7B93DCB_1_smart_pointer@cpp
	call	__CheckForDebuggerJustMyCode
	lea	rsp, QWORD PTR [rbp+200]
	pop	rdi
	pop	rbp
	ret	0
?__empty_global_delete@@YAXPEAX_K@Z ENDP		; __empty_global_delete
_TEXT	ENDS
; Function compile flags: /Odtp /RTCsu /ZI
; File E:\GitHub_Clone_Repository\Modern-CPP\Intermediate\1_smart_pointer.cpp
;	COMDAT ?__empty_global_delete@@YAXPEAX@Z
_TEXT	SEGMENT
__formal$ = 224
?__empty_global_delete@@YAXPEAX@Z PROC			; __empty_global_delete, COMDAT

$LN3:
	mov	QWORD PTR [rsp+8], rcx
	push	rbp
	push	rdi
	sub	rsp, 232				; 000000e8H
	lea	rbp, QWORD PTR [rsp+32]
	lea	rcx, OFFSET FLAT:__B7B93DCB_1_smart_pointer@cpp
	call	__CheckForDebuggerJustMyCode
	lea	rsp, QWORD PTR [rbp+200]
	pop	rdi
	pop	rbp
	ret	0
?__empty_global_delete@@YAXPEAX@Z ENDP			; __empty_global_delete
_TEXT	ENDS
END
