; Listing generated by Microsoft (R) Optimizing Compiler Version 19.29.30153.0 

include listing.inc

INCLUDELIB MSVCRTD
INCLUDELIB OLDNAMES

msvcjmc	SEGMENT
__97D3638F_vcruntime_new@h DB 01H
__741AE07E_corecrt_math@h DB 01H
__B49664B7_stdlib@h DB 01H
__244AF085_cstdlib DB 01H
__47F37C5A_xtr1common DB 01H
__1FEB9909_corecrt_memcpy_s@h DB 01H
__A751F051_corecrt_memory@h DB 01H
__9200769A_corecrt_wstring@h DB 01H
__32E5F013_string@h DB 01H
__81812A28_cstddef DB 01H
__589FA321_type_traits DB 01H
__A2143F22_corecrt_stdio_config@h DB 01H
__829E1958_corecrt_wstdio@h DB 01H
__6DFAE8B8_stdio@h DB 01H
__C6E16F6F_corecrt_wconio@h DB 01H
__6D390390_corecrt_wio@h DB 01H
__1157D6BA_corecrt_wtime@h DB 01H
__1DC1E279_stat@h DB 01H
__93DC0B45_wchar@h DB 01H
__7FE5F402_limits DB 01H
__DD5FCA34_compare DB 01H
__12269DE6_xutility DB 01H
__60BC708E_cmath DB 01H
__20BB4341_malloc@h DB 01H
__B0A13A33_vcruntime_exception@h DB 01H
__FF458F76_exception DB 01H
__C69F69CF_tuple DB 01H
__79D216CD_xmemory DB 01H
__374A57BA_xpolymorphic_allocator@h DB 01H
__0D019051_xstring DB 01H
__760BB52B_stdexcept DB 01H
__A4685E82_xcall_once@h DB 01H
__A0B61CF9_time@h DB 01H
__DDB379A0_xthreads@h DB 01H
__14D0A8C0_atomic DB 01H
__1B354CA2_system_error DB 01H
__65ADBEC9_vcruntime_typeinfo@h DB 01H
__62F96EFF_typeinfo DB 01H
__C34BF88C_memory DB 01H
__EF0EAF83_xfacet DB 01H
__B2D2BA86_ctype@h DB 01H
__7D708D37_xlocinfo DB 01H
__D23FE460_xlocale DB 01H
__4495FA24_xiosbase DB 01H
__4CB88277_xlocnum DB 01H
__845859A3_ios DB 01H
__5C2A759D_3_Prog_Default_Ctor@cpp DB 01H
__A2FF0B9E_istream DB 01H
__C12F3EA4_ostream DB 01H
__74AB0D97_streambuf DB 01H
__B30C2184_iosfwd DB 01H
__1347750E_utility DB 01H
__038A2AA6_iterator DB 01H
__E458E21C_xstddef DB 01H
__F54903A0_xatomic@h DB 01H
msvcjmc	ENDS
PUBLIC	?__empty_global_delete@@YAXPEAX@Z		; __empty_global_delete
PUBLIC	?__empty_global_delete@@YAXPEAX_K@Z		; __empty_global_delete
PUBLIC	?__empty_global_delete@@YAXPEAXW4align_val_t@std@@@Z ; __empty_global_delete
PUBLIC	?__empty_global_delete@@YAXPEAX_KW4align_val_t@std@@@Z ; __empty_global_delete
PUBLIC	??0Base@@QEAA@XZ				; Base::Base
PUBLIC	??0Derived@@QEAA@XZ				; Derived::Derived
PUBLIC	??0Composite@@QEAA@XZ				; Composite::Composite
PUBLIC	?SomeFunc@ClassWithVirtualFunc@@UEAAXXZ		; ClassWithVirtualFunc::SomeFunc
PUBLIC	??0ClassWithVirtualFunc@@QEAA@XZ		; ClassWithVirtualFunc::ClassWithVirtualFunc
PUBLIC	main
PUBLIC	__JustMyCode_Default
PUBLIC	??_7ClassWithVirtualFunc@@6B@			; ClassWithVirtualFunc::`vftable'
PUBLIC	??_R4ClassWithVirtualFunc@@6B@			; ClassWithVirtualFunc::`RTTI Complete Object Locator'
PUBLIC	??_R0?AVClassWithVirtualFunc@@@8		; ClassWithVirtualFunc `RTTI Type Descriptor'
PUBLIC	??_R3ClassWithVirtualFunc@@8			; ClassWithVirtualFunc::`RTTI Class Hierarchy Descriptor'
PUBLIC	??_R2ClassWithVirtualFunc@@8			; ClassWithVirtualFunc::`RTTI Base Class Array'
PUBLIC	??_R1A@?0A@EA@ClassWithVirtualFunc@@8		; ClassWithVirtualFunc::`RTTI Base Class Descriptor at (0,-1,0,64)'
EXTRN	_RTC_CheckStackVars:PROC
EXTRN	_RTC_InitBase:PROC
EXTRN	_RTC_Shutdown:PROC
EXTRN	__CheckForDebuggerJustMyCode:PROC
EXTRN	__GSHandlerCheck:PROC
EXTRN	__security_check_cookie:PROC
EXTRN	??_7type_info@@6B@:BYTE				; type_info::`vftable'
EXTRN	__security_cookie:QWORD
;	COMDAT pdata
pdata	SEGMENT
$pdata$?__empty_global_delete@@YAXPEAX@Z DD imagerel $LN3
	DD	imagerel $LN3+41
	DD	imagerel $unwind$?__empty_global_delete@@YAXPEAX@Z
pdata	ENDS
;	COMDAT pdata
pdata	SEGMENT
$pdata$?__empty_global_delete@@YAXPEAX_K@Z DD imagerel $LN3
	DD	imagerel $LN3+46
	DD	imagerel $unwind$?__empty_global_delete@@YAXPEAX_K@Z
pdata	ENDS
;	COMDAT pdata
pdata	SEGMENT
$pdata$?__empty_global_delete@@YAXPEAXW4align_val_t@std@@@Z DD imagerel $LN3
	DD	imagerel $LN3+46
	DD	imagerel $unwind$?__empty_global_delete@@YAXPEAXW4align_val_t@std@@@Z
pdata	ENDS
;	COMDAT pdata
pdata	SEGMENT
$pdata$?__empty_global_delete@@YAXPEAX_KW4align_val_t@std@@@Z DD imagerel $LN3
	DD	imagerel $LN3+51
	DD	imagerel $unwind$?__empty_global_delete@@YAXPEAX_KW4align_val_t@std@@@Z
pdata	ENDS
;	COMDAT pdata
pdata	SEGMENT
$pdata$??0Base@@QEAA@XZ DD imagerel $LN3
	DD	imagerel $LN3+48
	DD	imagerel $unwind$??0Base@@QEAA@XZ
pdata	ENDS
;	COMDAT pdata
pdata	SEGMENT
$pdata$??0Derived@@QEAA@XZ DD imagerel $LN3
	DD	imagerel $LN3+48
	DD	imagerel $unwind$??0Derived@@QEAA@XZ
pdata	ENDS
;	COMDAT pdata
pdata	SEGMENT
$pdata$??0Composite@@QEAA@XZ DD imagerel $LN3
	DD	imagerel $LN3+51
	DD	imagerel $unwind$??0Composite@@QEAA@XZ
pdata	ENDS
;	COMDAT pdata
pdata	SEGMENT
$pdata$?SomeFunc@ClassWithVirtualFunc@@UEAAXXZ DD imagerel $LN3
	DD	imagerel $LN3+41
	DD	imagerel $unwind$?SomeFunc@ClassWithVirtualFunc@@UEAAXXZ
pdata	ENDS
;	COMDAT pdata
pdata	SEGMENT
$pdata$??0ClassWithVirtualFunc@@QEAA@XZ DD imagerel $LN3
	DD	imagerel $LN3+51
	DD	imagerel $unwind$??0ClassWithVirtualFunc@@QEAA@XZ
pdata	ENDS
;	COMDAT pdata
pdata	SEGMENT
$pdata$main DD	imagerel $LN3
	DD	imagerel $LN3+135
	DD	imagerel $unwind$main
pdata	ENDS
;	COMDAT rtc$TMZ
rtc$TMZ	SEGMENT
_RTC_Shutdown.rtc$TMZ DQ FLAT:_RTC_Shutdown
rtc$TMZ	ENDS
;	COMDAT rtc$IMZ
rtc$IMZ	SEGMENT
_RTC_InitBase.rtc$IMZ DQ FLAT:_RTC_InitBase
rtc$IMZ	ENDS
;	COMDAT ??_R1A@?0A@EA@ClassWithVirtualFunc@@8
rdata$r	SEGMENT
??_R1A@?0A@EA@ClassWithVirtualFunc@@8 DD imagerel ??_R0?AVClassWithVirtualFunc@@@8 ; ClassWithVirtualFunc::`RTTI Base Class Descriptor at (0,-1,0,64)'
	DD	00H
	DD	00H
	DD	0ffffffffH
	DD	00H
	DD	040H
	DD	imagerel ??_R3ClassWithVirtualFunc@@8
rdata$r	ENDS
;	COMDAT ??_R2ClassWithVirtualFunc@@8
rdata$r	SEGMENT
??_R2ClassWithVirtualFunc@@8 DD imagerel ??_R1A@?0A@EA@ClassWithVirtualFunc@@8 ; ClassWithVirtualFunc::`RTTI Base Class Array'
	ORG $+3
rdata$r	ENDS
;	COMDAT ??_R3ClassWithVirtualFunc@@8
rdata$r	SEGMENT
??_R3ClassWithVirtualFunc@@8 DD 00H			; ClassWithVirtualFunc::`RTTI Class Hierarchy Descriptor'
	DD	00H
	DD	01H
	DD	imagerel ??_R2ClassWithVirtualFunc@@8
rdata$r	ENDS
;	COMDAT ??_R0?AVClassWithVirtualFunc@@@8
data$rs	SEGMENT
??_R0?AVClassWithVirtualFunc@@@8 DQ FLAT:??_7type_info@@6B@ ; ClassWithVirtualFunc `RTTI Type Descriptor'
	DQ	0000000000000000H
	DB	'.?AVClassWithVirtualFunc@@', 00H
data$rs	ENDS
;	COMDAT ??_R4ClassWithVirtualFunc@@6B@
rdata$r	SEGMENT
??_R4ClassWithVirtualFunc@@6B@ DD 01H			; ClassWithVirtualFunc::`RTTI Complete Object Locator'
	DD	00H
	DD	00H
	DD	imagerel ??_R0?AVClassWithVirtualFunc@@@8
	DD	imagerel ??_R3ClassWithVirtualFunc@@8
	DD	imagerel ??_R4ClassWithVirtualFunc@@6B@
rdata$r	ENDS
;	COMDAT ??_7ClassWithVirtualFunc@@6B@
CONST	SEGMENT
??_7ClassWithVirtualFunc@@6B@ DQ FLAT:??_R4ClassWithVirtualFunc@@6B@ ; ClassWithVirtualFunc::`vftable'
	DQ	FLAT:?SomeFunc@ClassWithVirtualFunc@@UEAAXXZ
CONST	ENDS
;	COMDAT voltbl
voltbl	SEGMENT
_volmd	DB	02aH
	DB	06eH
voltbl	ENDS
;	COMDAT xdata
xdata	SEGMENT
$unwind$main DD	025053119H
	DD	010a230fH
	DD	070030029H
	DD	05002H
	DD	imagerel __GSHandlerCheck
	DD	0138H
xdata	ENDS
;	COMDAT CONST
CONST	SEGMENT
main$rtcName$0 DB 06fH
	DB	062H
	DB	06aH
	DB	044H
	DB	065H
	DB	072H
	DB	00H
	ORG $+1
main$rtcName$1 DB 06fH
	DB	062H
	DB	06aH
	DB	043H
	DB	06fH
	DB	06dH
	DB	070H
	DB	00H
main$rtcName$2 DB 06fH
	DB	062H
	DB	06aH
	DB	056H
	DB	069H
	DB	072H
	DB	043H
	DB	06cH
	DB	061H
	DB	073H
	DB	073H
	DB	00H
	ORG $+4
main$rtcVarDesc DD 068H
	DD	08H
	DQ	FLAT:main$rtcName$2
	DD	044H
	DD	01H
	DQ	FLAT:main$rtcName$1
	DD	024H
	DD	01H
	DQ	FLAT:main$rtcName$0
	ORG $+144
main$rtcFrameData DD 03H
	DD	00H
	DQ	FLAT:main$rtcVarDesc
CONST	ENDS
;	COMDAT xdata
xdata	SEGMENT
$unwind$??0ClassWithVirtualFunc@@QEAA@XZ DD 05051101H
	DD	010e0311H
	DD	070070019H
	DD	05006H
xdata	ENDS
;	COMDAT xdata
xdata	SEGMENT
$unwind$?SomeFunc@ClassWithVirtualFunc@@UEAAXXZ DD 025051301H
	DD	010e2313H
	DD	07007001dH
	DD	05006H
xdata	ENDS
;	COMDAT xdata
xdata	SEGMENT
$unwind$??0Composite@@QEAA@XZ DD 025051301H
	DD	010e2313H
	DD	07007001dH
	DD	05006H
xdata	ENDS
;	COMDAT xdata
xdata	SEGMENT
$unwind$??0Derived@@QEAA@XZ DD 025051301H
	DD	010e2313H
	DD	07007001dH
	DD	05006H
xdata	ENDS
;	COMDAT xdata
xdata	SEGMENT
$unwind$??0Base@@QEAA@XZ DD 025051301H
	DD	010e2313H
	DD	07007001dH
	DD	05006H
xdata	ENDS
;	COMDAT xdata
xdata	SEGMENT
$unwind$?__empty_global_delete@@YAXPEAX_KW4align_val_t@std@@@Z DD 025051d01H
	DD	0118231dH
	DD	07011001dH
	DD	05010H
xdata	ENDS
;	COMDAT xdata
xdata	SEGMENT
$unwind$?__empty_global_delete@@YAXPEAXW4align_val_t@std@@@Z DD 025051801H
	DD	01132318H
	DD	0700c001dH
	DD	0500bH
xdata	ENDS
;	COMDAT xdata
xdata	SEGMENT
$unwind$?__empty_global_delete@@YAXPEAX_K@Z DD 025051801H
	DD	01132318H
	DD	0700c001dH
	DD	0500bH
xdata	ENDS
;	COMDAT xdata
xdata	SEGMENT
$unwind$?__empty_global_delete@@YAXPEAX@Z DD 025051301H
	DD	010e2313H
	DD	07007001dH
	DD	05006H
xdata	ENDS
; Function compile flags: /Odt
;	COMDAT __JustMyCode_Default
_TEXT	SEGMENT
__JustMyCode_Default PROC				; COMDAT
	ret	0
__JustMyCode_Default ENDP
_TEXT	ENDS
; Function compile flags: /Odtp /RTCsu /ZI
; File E:\GitHub_Clone_Repository\Modern-CPP\Basic\3_Prog_Default_Ctor.cpp
;	COMDAT main
_TEXT	SEGMENT
objDer$ = 4
objComp$ = 36
objVirClass$ = 72
__$ArrayPad$ = 280
main	PROC						; COMDAT

; 49   : {

$LN3:
	push	rbp
	push	rdi
	sub	rsp, 328				; 00000148H
	lea	rbp, QWORD PTR [rsp+32]
	lea	rdi, QWORD PTR [rsp+32]
	mov	ecx, 26
	mov	eax, -858993460				; ccccccccH
	rep stosd
	mov	rax, QWORD PTR __security_cookie
	xor	rax, rbp
	mov	QWORD PTR __$ArrayPad$[rbp], rax
	lea	rcx, OFFSET FLAT:__5C2A759D_3_Prog_Default_Ctor@cpp
	call	__CheckForDebuggerJustMyCode

; 50   : 	Derived objDer;

	lea	rcx, QWORD PTR objDer$[rbp]
	call	??0Derived@@QEAA@XZ

; 51   : 	Composite objComp;

	lea	rcx, QWORD PTR objComp$[rbp]
	call	??0Composite@@QEAA@XZ

; 52   : 	ClassWithVirtualFunc objVirClass;

	lea	rcx, QWORD PTR objVirClass$[rbp]
	call	??0ClassWithVirtualFunc@@QEAA@XZ

; 53   : 	return 0;

	xor	eax, eax

; 54   : }

	mov	edi, eax
	lea	rcx, QWORD PTR [rbp-32]
	lea	rdx, OFFSET FLAT:main$rtcFrameData
	call	_RTC_CheckStackVars
	mov	eax, edi
	mov	rcx, QWORD PTR __$ArrayPad$[rbp]
	xor	rcx, rbp
	call	__security_check_cookie
	lea	rsp, QWORD PTR [rbp+296]
	pop	rdi
	pop	rbp
	ret	0
main	ENDP
_TEXT	ENDS
; Function compile flags: /Odtp /RTCsu /ZI
;	COMDAT ??0ClassWithVirtualFunc@@QEAA@XZ
_TEXT	SEGMENT
this$ = 224
??0ClassWithVirtualFunc@@QEAA@XZ PROC			; ClassWithVirtualFunc::ClassWithVirtualFunc, COMDAT
$LN3:
	mov	QWORD PTR [rsp+8], rcx
	push	rbp
	push	rdi
	sub	rsp, 200				; 000000c8H
	mov	rbp, rsp
	mov	rax, QWORD PTR this$[rbp]
	lea	rcx, OFFSET FLAT:??_7ClassWithVirtualFunc@@6B@
	mov	QWORD PTR [rax], rcx
	mov	rax, QWORD PTR this$[rbp]
	lea	rsp, QWORD PTR [rbp+200]
	pop	rdi
	pop	rbp
	ret	0
??0ClassWithVirtualFunc@@QEAA@XZ ENDP			; ClassWithVirtualFunc::ClassWithVirtualFunc
_TEXT	ENDS
; Function compile flags: /Odtp /RTCsu /ZI
; File E:\GitHub_Clone_Repository\Modern-CPP\Basic\3_Prog_Default_Ctor.cpp
;	COMDAT ?SomeFunc@ClassWithVirtualFunc@@UEAAXXZ
_TEXT	SEGMENT
this$ = 224
?SomeFunc@ClassWithVirtualFunc@@UEAAXXZ PROC		; ClassWithVirtualFunc::SomeFunc, COMDAT

; 45   : 	virtual void SomeFunc() {}

$LN3:
	mov	QWORD PTR [rsp+8], rcx
	push	rbp
	push	rdi
	sub	rsp, 232				; 000000e8H
	lea	rbp, QWORD PTR [rsp+32]
	lea	rcx, OFFSET FLAT:__5C2A759D_3_Prog_Default_Ctor@cpp
	call	__CheckForDebuggerJustMyCode
	lea	rsp, QWORD PTR [rbp+200]
	pop	rdi
	pop	rbp
	ret	0
?SomeFunc@ClassWithVirtualFunc@@UEAAXXZ ENDP		; ClassWithVirtualFunc::SomeFunc
_TEXT	ENDS
; Function compile flags: /Odtp /RTCsu /ZI
;	COMDAT ??0Composite@@QEAA@XZ
_TEXT	SEGMENT
this$ = 224
??0Composite@@QEAA@XZ PROC				; Composite::Composite, COMDAT
$LN3:
	mov	QWORD PTR [rsp+8], rcx
	push	rbp
	push	rdi
	sub	rsp, 232				; 000000e8H
	lea	rbp, QWORD PTR [rsp+32]
	mov	rax, QWORD PTR this$[rbp]
	mov	rcx, rax
	call	??0Base@@QEAA@XZ			; Base::Base
	mov	rax, QWORD PTR this$[rbp]
	lea	rsp, QWORD PTR [rbp+200]
	pop	rdi
	pop	rbp
	ret	0
??0Composite@@QEAA@XZ ENDP				; Composite::Composite
_TEXT	ENDS
; Function compile flags: /Odtp /RTCsu /ZI
;	COMDAT ??0Derived@@QEAA@XZ
_TEXT	SEGMENT
this$ = 224
??0Derived@@QEAA@XZ PROC				; Derived::Derived, COMDAT
$LN3:
	mov	QWORD PTR [rsp+8], rcx
	push	rbp
	push	rdi
	sub	rsp, 232				; 000000e8H
	lea	rbp, QWORD PTR [rsp+32]
	mov	rcx, QWORD PTR this$[rbp]
	call	??0Base@@QEAA@XZ			; Base::Base
	mov	rax, QWORD PTR this$[rbp]
	lea	rsp, QWORD PTR [rbp+200]
	pop	rdi
	pop	rbp
	ret	0
??0Derived@@QEAA@XZ ENDP				; Derived::Derived
_TEXT	ENDS
; Function compile flags: /Odtp /RTCsu /ZI
; File E:\GitHub_Clone_Repository\Modern-CPP\Basic\3_Prog_Default_Ctor.cpp
;	COMDAT ??0Base@@QEAA@XZ
_TEXT	SEGMENT
this$ = 224
??0Base@@QEAA@XZ PROC					; Base::Base, COMDAT

; 16   : 	Base() {} // prolog - construction happens here

$LN3:
	mov	QWORD PTR [rsp+8], rcx
	push	rbp
	push	rdi
	sub	rsp, 232				; 000000e8H
	lea	rbp, QWORD PTR [rsp+32]
	lea	rcx, OFFSET FLAT:__5C2A759D_3_Prog_Default_Ctor@cpp
	call	__CheckForDebuggerJustMyCode
	mov	rax, QWORD PTR this$[rbp]
	lea	rsp, QWORD PTR [rbp+200]
	pop	rdi
	pop	rbp
	ret	0
??0Base@@QEAA@XZ ENDP					; Base::Base
_TEXT	ENDS
; Function compile flags: /Odtp /RTCsu /ZI
; File E:\GitHub_Clone_Repository\Modern-CPP\Basic\3_Prog_Default_Ctor.cpp
;	COMDAT ?__empty_global_delete@@YAXPEAX_KW4align_val_t@std@@@Z
_TEXT	SEGMENT
__formal$ = 224
__formal$ = 232
__formal$ = 240
?__empty_global_delete@@YAXPEAX_KW4align_val_t@std@@@Z PROC ; __empty_global_delete, COMDAT

$LN3:
	mov	QWORD PTR [rsp+24], r8
	mov	QWORD PTR [rsp+16], rdx
	mov	QWORD PTR [rsp+8], rcx
	push	rbp
	push	rdi
	sub	rsp, 232				; 000000e8H
	lea	rbp, QWORD PTR [rsp+32]
	lea	rcx, OFFSET FLAT:__5C2A759D_3_Prog_Default_Ctor@cpp
	call	__CheckForDebuggerJustMyCode
	lea	rsp, QWORD PTR [rbp+200]
	pop	rdi
	pop	rbp
	ret	0
?__empty_global_delete@@YAXPEAX_KW4align_val_t@std@@@Z ENDP ; __empty_global_delete
_TEXT	ENDS
; Function compile flags: /Odtp /RTCsu /ZI
; File E:\GitHub_Clone_Repository\Modern-CPP\Basic\3_Prog_Default_Ctor.cpp
;	COMDAT ?__empty_global_delete@@YAXPEAXW4align_val_t@std@@@Z
_TEXT	SEGMENT
__formal$ = 224
__formal$ = 232
?__empty_global_delete@@YAXPEAXW4align_val_t@std@@@Z PROC ; __empty_global_delete, COMDAT

$LN3:
	mov	QWORD PTR [rsp+16], rdx
	mov	QWORD PTR [rsp+8], rcx
	push	rbp
	push	rdi
	sub	rsp, 232				; 000000e8H
	lea	rbp, QWORD PTR [rsp+32]
	lea	rcx, OFFSET FLAT:__5C2A759D_3_Prog_Default_Ctor@cpp
	call	__CheckForDebuggerJustMyCode
	lea	rsp, QWORD PTR [rbp+200]
	pop	rdi
	pop	rbp
	ret	0
?__empty_global_delete@@YAXPEAXW4align_val_t@std@@@Z ENDP ; __empty_global_delete
_TEXT	ENDS
; Function compile flags: /Odtp /RTCsu /ZI
; File E:\GitHub_Clone_Repository\Modern-CPP\Basic\3_Prog_Default_Ctor.cpp
;	COMDAT ?__empty_global_delete@@YAXPEAX_K@Z
_TEXT	SEGMENT
__formal$ = 224
__formal$ = 232
?__empty_global_delete@@YAXPEAX_K@Z PROC		; __empty_global_delete, COMDAT

$LN3:
	mov	QWORD PTR [rsp+16], rdx
	mov	QWORD PTR [rsp+8], rcx
	push	rbp
	push	rdi
	sub	rsp, 232				; 000000e8H
	lea	rbp, QWORD PTR [rsp+32]
	lea	rcx, OFFSET FLAT:__5C2A759D_3_Prog_Default_Ctor@cpp
	call	__CheckForDebuggerJustMyCode
	lea	rsp, QWORD PTR [rbp+200]
	pop	rdi
	pop	rbp
	ret	0
?__empty_global_delete@@YAXPEAX_K@Z ENDP		; __empty_global_delete
_TEXT	ENDS
; Function compile flags: /Odtp /RTCsu /ZI
; File E:\GitHub_Clone_Repository\Modern-CPP\Basic\3_Prog_Default_Ctor.cpp
;	COMDAT ?__empty_global_delete@@YAXPEAX@Z
_TEXT	SEGMENT
__formal$ = 224
?__empty_global_delete@@YAXPEAX@Z PROC			; __empty_global_delete, COMDAT

$LN3:
	mov	QWORD PTR [rsp+8], rcx
	push	rbp
	push	rdi
	sub	rsp, 232				; 000000e8H
	lea	rbp, QWORD PTR [rsp+32]
	lea	rcx, OFFSET FLAT:__5C2A759D_3_Prog_Default_Ctor@cpp
	call	__CheckForDebuggerJustMyCode
	lea	rsp, QWORD PTR [rbp+200]
	pop	rdi
	pop	rbp
	ret	0
?__empty_global_delete@@YAXPEAX@Z ENDP			; __empty_global_delete
_TEXT	ENDS
END
